Certificate:
    Data:
        Version: 3 (0x2)
        Serial Number: 9483495839940781476 (0x839c25388090a5a4)
    Signature Algorithm: sha1WithRSAEncryption
        Issuer: CN=pulp-ca
        Validity
            Not Before: May  9 19:52:20 2017 GMT
            Not After : May  7 19:52:20 2027 GMT
        Subject: CN=e_full
        Subject Public Key Info:
            Public Key Algorithm: rsaEncryption
                Public-Key: (4096 bit)
                Modulus:
                    00:d3:6d:71:26:86:3c:50:2e:0d:02:c5:11:e9:57:
                    3e:15:9c:d6:02:9b:e3:7b:3c:af:9b:ed:e2:de:06:
                    4a:b2:51:03:a4:0b:44:af:73:67:2e:16:6b:cf:f7:
                    13:f6:03:91:fc:79:96:8d:56:ef:c1:e5:f4:bb:e6:
                    07:fe:9f:58:49:52:8f:0f:56:70:20:13:11:6d:b8:
                    e2:c3:be:0f:fd:02:71:53:8f:2f:7f:23:65:e7:dd:
                    3a:d8:57:cf:4c:07:06:84:1d:64:4a:2c:a5:ac:fb:
                    f8:da:9f:96:d4:f5:a7:8f:7c:f9:d5:85:dc:dd:1a:
                    f9:56:bd:f1:ab:19:cd:7f:81:94:2a:1f:ef:5f:99:
                    0c:93:23:ce:85:9b:75:95:ac:76:9f:77:c4:2d:8b:
                    c9:2c:c7:43:47:58:df:eb:a7:45:3b:68:de:31:25:
                    76:b5:3c:c2:a4:37:a7:20:cb:07:b0:cc:9b:a0:d6:
                    cd:e1:8f:c0:02:d0:c4:aa:d0:e2:90:13:85:e3:bb:
                    16:ab:27:b7:12:bc:6a:4d:37:cb:86:ab:cc:c9:b9:
                    89:9b:cc:3d:70:90:c3:a0:3a:81:6d:6a:7f:7e:fa:
                    54:d2:6c:7f:9f:92:77:18:b6:54:54:1b:73:8a:5a:
                    88:c7:ab:f1:96:21:7b:ec:41:dd:58:4f:ac:5f:60:
                    ef:6c:fe:ca:3b:3c:0e:1f:fb:8a:05:90:a7:a9:49:
                    77:46:39:c7:f0:38:b0:e4:1e:ad:d8:4b:f5:3e:dc:
                    95:0b:db:ce:12:25:8f:7c:dc:67:f5:8b:e4:65:04:
                    20:9d:8f:dc:68:7d:a3:c8:ea:ce:35:51:32:3c:a7:
                    82:17:03:49:7a:83:6c:34:04:0e:f0:86:bd:55:8e:
                    72:bf:1b:c9:7d:e6:83:72:af:ee:00:ae:81:17:56:
                    4f:8c:1a:82:57:8d:45:5c:84:78:05:58:a6:d5:ee:
                    0d:79:9b:de:4f:fb:e6:6f:a0:ad:69:6f:68:11:5c:
                    78:a9:cd:64:87:e0:d5:df:0a:d3:94:5e:a0:30:f3:
                    2c:4a:fe:cb:71:cd:e6:86:71:e9:bb:5f:79:78:d2:
                    1e:e8:06:f2:6d:0d:65:e8:a6:a0:ba:ff:0b:d0:75:
                    e5:63:5d:72:b1:38:8f:9c:a7:62:aa:a3:d0:06:15:
                    5b:0f:da:b4:55:26:bc:99:9e:9f:55:50:f0:77:4f:
                    fc:31:01:ed:5f:31:24:f3:4d:5c:ce:f1:d4:2e:09:
                    5b:0a:10:f9:68:9e:7a:da:37:23:1e:00:34:e8:5a:
                    4c:df:38:88:6a:20:43:26:aa:f5:e2:8c:68:95:b2:
                    74:5b:fc:a9:7e:bb:72:a2:a6:fb:70:73:ea:cc:b4:
                    86:9d:0b
                Exponent: 65537 (0x10001)
        X509v3 extensions:
            X509v3 Basic Constraints: 
                CA:FALSE
            1.3.6.1.4.1.2312.9.4.1: 
                ..fake-order-name
            1.3.6.1.4.1.2312.9.2.13.1: 
                ..yum
            1.3.6.1.4.1.2312.9.2.13.1.1: 
                ..Pulp-13
            1.3.6.1.4.1.2312.9.2.13.1.2: 
                ..pulp-13
            1.3.6.1.4.1.2312.9.2.13.1.6: 
                .!repos/pulp/pulp/fedora-13/x86_64/
            1.3.6.1.4.1.2312.9.2.14.1: 
                ..yum
            1.3.6.1.4.1.2312.9.2.14.1.1: 
                ..Pulp-14
            1.3.6.1.4.1.2312.9.2.14.1.2: 
                ..pulp-14
            1.3.6.1.4.1.2312.9.2.14.1.6: 
                .!repos/pulp/pulp/fedora-14/x86_64/
    Signature Algorithm: sha1WithRSAEncryption
         bf:c7:b9:ae:06:ce:04:30:b9:e3:32:24:c0:a3:a0:37:9f:ba:
         1d:cf:f7:8e:9c:29:ad:78:e1:c5:33:43:01:05:5b:51:b2:5d:
         8c:6f:a6:c4:b3:d9:ce:a5:00:0e:06:a2:d9:39:f0:3e:ab:b5:
         e6:e6:d3:75:a3:5f:6e:7b:03:6a:1b:88:e2:c1:19:7e:94:5a:
         91:34:fc:50:1a:e8:28:f3:96:90:94:fa:74:5d:b7:c4:37:45:
         a2:68:82:5f:28:80:d1:9d:3f:42:89:43:a7:a8:8d:99:b5:b2:
         89:90:72:48:95:6e:9c:c5:51:99:a6:70:7c:5f:eb:6e:93:dc:
         20:07:a8:3e:8f:3c:6d:b6:f9:95:ae:5d:88:ee:36:44:1d:6c:
         80:33:5e:86:47:b1:56:65:7b:24:8e:ed:b4:99:72:64:2c:3b:
         84:57:bd:5a:c0:6c:2f:06:7b:7f:8b:57:48:ce:02:6c:cf:ae:
         ae:27:91:13:6d:d6:0c:f9:4e:0b:b8:4d:7a:11:aa:f4:98:51:
         ba:a9:3d:29:10:2a:82:0f:2a:93:4e:38:61:34:1a:df:b2:b5:
         15:0b:54:78:30:09:21:80:a1:17:43:b9:c5:c7:fa:8a:1c:7a:
         32:5b:65:76:17:14:46:eb:50:b6:c5:24:5e:dd:ae:d5:47:f0:
         35:d1:c6:9b:68:e1:0c:b1:ea:06:ab:1c:1f:ad:ca:61:89:a4:
         f6:30:b0:ff:92:cb:d5:a2:44:10:9c:15:31:f5:dc:e7:9c:d9:
         3f:e4:d9:b4:2e:af:62:85:35:6f:e9:4b:77:b3:26:5e:38:41:
         39:f5:9a:8f:a3:42:50:a1:f5:b1:52:d5:be:3b:d5:9d:ee:53:
         82:a0:30:46:b1:33:bd:02:f1:d1:20:d1:23:92:ff:4c:cd:27:
         a0:56:9a:95:21:af:97:4a:36:17:49:c1:b5:6a:73:25:e2:a3:
         87:ee:ea:81:96:89:87:76:be:53:71:39:5e:47:49:26:8e:6c:
         d6:ae:56:96:88:90:2f:d3:c7:7f:fb:68:a7:91:31:8c:bb:e6:
         b8:83:33:43:a5:6d:c3:c9:ac:d9:19:ad:df:09:f7:4e:2d:1f:
         35:8a:88:02:4f:6c:00:46:f4:f2:3a:19:1c:68:b3:2d:2f:8b:
         29:98:0d:87:86:3e:92:b1:e2:3e:4f:2e:60:ea:eb:2a:36:73:
         11:17:92:8c:12:88:29:ff:b7:a5:fc:69:a5:94:38:f8:7f:6f:
         2a:27:f0:b5:45:1c:c6:7d:28:d1:52:a9:c6:8b:79:77:e9:40:
         2c:75:03:2a:18:02:1c:2d:08:13:77:d0:f5:09:af:b3:eb:46:
         79:a5:26:f2:99:fa:58:e6
-----BEGIN CERTIFICATE-----
MIIF2jCCA8KgAwIBAgIJAIOcJTiAkKWkMA0GCSqGSIb3DQEBBQUAMBIxEDAOBgNV
BAMTB3B1bHAtY2EwHhcNMTcwNTA5MTk1MjIwWhcNMjcwNTA3MTk1MjIwWjARMQ8w
DQYDVQQDFAZlX2Z1bGwwggIiMA0GCSqGSIb3DQEBAQUAA4ICDwAwggIKAoICAQDT
bXEmhjxQLg0CxRHpVz4VnNYCm+N7PK+b7eLeBkqyUQOkC0Svc2cuFmvP9xP2A5H8
eZaNVu/B5fS75gf+n1hJUo8PVnAgExFtuOLDvg/9AnFTjy9/I2Xn3TrYV89MBwaE
HWRKLKWs+/jan5bU9aePfPnVhdzdGvlWvfGrGc1/gZQqH+9fmQyTI86Fm3WVrHaf
d8Qti8ksx0NHWN/rp0U7aN4xJXa1PMKkN6cgywewzJug1s3hj8AC0MSq0OKQE4Xj
uxarJ7cSvGpNN8uGq8zJuYmbzD1wkMOgOoFtan9++lTSbH+fkncYtlRUG3OKWojH
q/GWIXvsQd1YT6xfYO9s/so7PA4f+4oFkKepSXdGOcfwOLDkHq3YS/U+3JUL284S
JY983Gf1i+RlBCCdj9xofaPI6s41UTI8p4IXA0l6g2w0BA7whr1VjnK/G8l95oNy
r+4AroEXVk+MGoJXjUVchHgFWKbV7g15m95P++ZvoK1pb2gRXHipzWSH4NXfCtOU
XqAw8yxK/stxzeaGcem7X3l40h7oBvJtDWXopqC6/wvQdeVjXXKxOI+cp2Kqo9AG
FVsP2rRVJryZnp9VUPB3T/wxAe1fMSTzTVzO8dQuCVsKEPlonnraNyMeADToWkzf
OIhqIEMmqvXijGiVsnRb/Kl+u3Kipvtwc+rMtIadCwIDAQABo4IBMjCCAS4wCQYD
VR0TBAIwADAfBgorBgEEAZIICQQBBBEMD2Zha2Utb3JkZXItbmFtZTAUBgsrBgEE
AZIICQINAQQFDAN5dW0wGQYMKwYBBAGSCAkCDQEBBAkMB1B1bHAtMTMwGQYMKwYB
BAGSCAkCDQECBAkMB3B1bHAtMTMwMwYMKwYBBAGSCAkCDQEGBCMMIXJlcG9zL3B1
bHAvcHVscC9mZWRvcmEtMTMveDg2XzY0LzAUBgsrBgEEAZIICQIOAQQFDAN5dW0w
GQYMKwYBBAGSCAkCDgEBBAkMB1B1bHAtMTQwGQYMKwYBBAGSCAkCDgECBAkMB3B1
bHAtMTQwMwYMKwYBBAGSCAkCDgEGBCMMIXJlcG9zL3B1bHAvcHVscC9mZWRvcmEt
MTQveDg2XzY0LzANBgkqhkiG9w0BAQUFAAOCAgEAv8e5rgbOBDC54zIkwKOgN5+6
Hc/3jpwprXjhxTNDAQVbUbJdjG+mxLPZzqUADgai2TnwPqu15ubTdaNfbnsDahuI
4sEZfpRakTT8UBroKPOWkJT6dF23xDdFomiCXyiA0Z0/QolDp6iNmbWyiZBySJVu
nMVRmaZwfF/rbpPcIAeoPo88bbb5la5diO42RB1sgDNehkexVmV7JI7ttJlyZCw7
hFe9WsBsLwZ7f4tXSM4CbM+urieRE23WDPlOC7hNehGq9JhRuqk9KRAqgg8qk044
YTQa37K1FQtUeDAJIYChF0O5xcf6ihx6MltldhcURutQtsUkXt2u1UfwNdHGm2jh
DLHqBqscH63KYYmk9jCw/5LL1aJEEJwVMfXc55zZP+TZtC6vYoU1b+lLd7MmXjhB
OfWaj6NCUKH1sVLVvjvVne5TgqAwRrEzvQLx0SDRI5L/TM0noFaalSGvl0o2F0nB
tWpzJeKjh+7qgZaJh3a+U3E5XkdJJo5s1q5WloiQL9PHf/top5ExjLvmuIMzQ6Vt
w8ms2Rmt3wn3Ti0fNYqIAk9sAEb08joZHGizLS+LKZgNh4Y+krHiPk8uYOrrKjZz
EReSjBKIKf+3pfxppZQ4+H9vKifwtUUcxn0o0VKpxot5d+lALHUDKhgCHC0IE3fQ
9Qmvs+tGeaUm8pn6WOY=
-----END CERTIFICATE-----
