Certificate:
    Data:
        Version: 3 (0x2)
        Serial Number:
            c9:44:9c:bd:52:7d:93:61
    Signature Algorithm: sha256WithRSAEncryption
        Issuer: CN = pulp-ca
        Validity
            Not Before: Jan 25 20:38:10 2018 GMT
            Not After : Jan 23 20:38:10 2028 GMT
        Subject: CN = e_full
        Subject Public Key Info:
            Public Key Algorithm: rsaEncryption
                Public-Key: (4096 bit)
                Modulus:
                    00:a6:9e:35:c5:a6:f6:ae:13:95:05:82:5d:ee:0d:
                    79:91:fa:4f:b4:4a:67:85:7a:88:8f:67:36:bc:e6:
                    48:0e:5a:a4:06:80:06:69:14:82:6c:35:73:14:3d:
                    d8:8d:dc:9a:48:51:91:d5:90:1f:ea:3e:69:a8:d7:
                    50:f9:21:d8:94:c0:96:1f:f3:64:18:10:69:07:26:
                    32:e7:18:c5:a2:e7:8f:eb:5f:0b:a7:d2:f6:73:c2:
                    95:c5:02:72:7d:a2:db:6c:e6:75:4c:7a:50:20:6e:
                    8d:d9:aa:a3:6a:18:8e:f8:c6:80:ec:bb:a0:95:36:
                    28:c7:76:6f:37:28:15:44:da:86:c7:68:67:66:4a:
                    f1:3d:87:81:e5:6f:3f:b3:de:b5:0b:6b:8c:c1:23:
                    e1:ac:be:29:0f:58:13:ce:d6:1d:5f:9c:89:09:ce:
                    fb:39:be:ab:74:ad:84:66:b6:53:94:5f:0c:33:30:
                    52:22:f7:9d:c0:42:96:be:58:e5:15:f5:27:9b:05:
                    bb:3f:b5:51:56:5c:73:99:e7:55:a4:11:7b:8d:f9:
                    ca:9b:e6:ff:6f:d8:c2:a8:0b:1f:35:07:7a:79:c3:
                    2e:74:ee:a9:80:eb:b0:e2:b1:1f:db:79:8e:0c:96:
                    a1:7e:30:dd:24:62:5c:c3:3d:f7:0d:92:d2:36:6d:
                    87:77:1e:b7:c5:9d:38:90:66:e5:37:69:3c:70:57:
                    23:80:22:ff:6e:f9:9b:79:91:df:0e:55:90:e2:df:
                    37:4f:a0:01:32:ee:43:14:d6:51:f1:5c:1a:23:eb:
                    bf:18:54:b0:a7:3b:c2:c0:35:5b:09:c8:f2:2f:3a:
                    bc:9a:98:4a:ed:9e:c1:32:53:2c:ad:c8:2d:be:cf:
                    f4:dd:20:6e:34:6e:a8:9f:4d:fa:ee:62:a2:82:ce:
                    fa:c9:a1:46:a9:c6:a0:18:09:2b:c0:61:25:af:30:
                    a1:7f:e0:7a:a3:21:75:27:bb:07:4d:ef:ed:aa:db:
                    07:3a:1a:a4:85:a7:0d:ac:64:11:b4:f0:45:bd:a3:
                    9c:32:16:74:ca:f0:e4:15:90:b6:e5:8f:64:8e:89:
                    71:b0:8b:89:c8:45:e1:2b:54:0f:52:5c:5f:e6:d8:
                    6e:24:8a:0e:a0:a7:eb:f4:3d:70:f5:81:10:ad:96:
                    a9:58:d2:3b:6e:1c:85:18:b7:be:e2:29:0e:0a:25:
                    85:27:82:2c:72:54:ba:46:04:dc:c9:31:2f:47:aa:
                    ad:01:20:c4:c2:42:a5:27:62:4a:84:6b:2a:39:83:
                    f1:fd:b0:57:c5:a7:67:cb:f8:e3:95:df:88:ca:55:
                    ee:13:9a:c1:c9:9a:5a:47:ec:8d:6b:c1:01:ed:44:
                    16:35:75
                Exponent: 65537 (0x10001)
        X509v3 extensions:
            X509v3 Basic Constraints: 
                CA:FALSE
            1.3.6.1.4.1.2312.9.4.1: 
                ..fake-order-name
            1.3.6.1.4.1.2312.9.2.13.1: 
                ..yum
            1.3.6.1.4.1.2312.9.2.13.1.1: 
                ..Pulp-13
            1.3.6.1.4.1.2312.9.2.13.1.2: 
                ..pulp-13
            1.3.6.1.4.1.2312.9.2.13.1.6: 
                .!repos/pulp/pulp/fedora-13/x86_64/
            1.3.6.1.4.1.2312.9.2.14.1: 
                ..yum
            1.3.6.1.4.1.2312.9.2.14.1.1: 
                ..Pulp-14
            1.3.6.1.4.1.2312.9.2.14.1.2: 
                ..pulp-14
            1.3.6.1.4.1.2312.9.2.14.1.6: 
                .!repos/pulp/pulp/fedora-14/x86_64/
    Signature Algorithm: sha256WithRSAEncryption
         42:ca:f4:08:09:b1:48:27:6f:f2:c8:0f:d5:96:d7:f8:8e:22:
         f9:f5:1c:a1:33:b9:75:59:d9:f3:be:81:df:ff:06:fc:35:e9:
         25:fd:03:ef:66:74:ff:27:b1:50:02:7f:70:ef:f0:bf:22:4e:
         45:df:b1:87:2e:d8:ad:c2:27:58:3d:5e:3f:45:d5:9c:2d:65:
         70:e3:6d:a9:e6:60:7f:26:09:db:e1:ff:5d:83:d3:1b:b8:ec:
         58:03:68:36:c1:4a:45:f4:a3:80:f0:78:4d:0e:36:d7:2c:7f:
         7b:e4:9e:78:d5:29:3c:4f:c5:f1:e5:56:b5:58:1c:9a:6b:72:
         8c:bc:4f:d9:f3:f2:6a:de:5f:c7:c8:ad:fd:28:84:e1:1e:39:
         71:91:13:fa:79:87:d7:3d:8b:9b:5c:71:a5:6f:1c:8e:d2:fc:
         cf:80:c2:46:61:8e:4e:17:b9:09:6d:bd:45:d0:24:44:c9:08:
         e9:31:d1:f4:41:29:81:2e:e4:85:58:04:d9:06:15:dc:b7:eb:
         04:62:c5:d2:20:4c:b1:3e:dd:1e:2a:8c:66:dd:92:0e:e2:8f:
         e3:bc:c2:3c:28:62:10:d5:07:fc:08:53:af:45:a6:c6:65:ce:
         88:51:a6:f3:76:9e:5f:10:7f:e3:99:bd:81:3a:93:19:e7:57:
         68:aa:c1:26:3c:7c:ad:21:31:d7:b9:4a:40:c2:9d:62:06:1a:
         4e:e4:67:4d:21:88:82:0e:27:5b:07:0d:26:bf:c6:21:9e:0b:
         29:d1:86:ea:be:2b:b5:b4:fe:38:e7:94:ed:72:16:22:42:be:
         50:78:2d:32:1d:95:e6:5d:f6:28:64:8b:50:d9:9c:9b:3d:f7:
         14:42:eb:a2:22:26:7c:13:ea:2b:12:12:42:40:56:44:b1:81:
         b7:86:5a:8d:11:7a:47:a3:24:d9:f2:35:ee:9a:a1:1b:fd:9b:
         a9:ff:00:fc:6b:c0:cc:83:f2:f3:fa:4c:98:e0:f8:58:a0:fa:
         2f:57:c5:ef:ca:b9:ec:f0:43:7f:a4:45:3b:05:2a:51:5f:f7:
         33:66:0d:75:d4:4d:cd:e2:96:48:e8:5a:95:91:c7:02:53:01:
         3a:b9:1e:d7:2d:20:90:77:15:ac:87:8d:f5:b5:7e:b3:04:26:
         b9:3f:27:a0:e7:60:c5:11:a7:b8:b5:ba:e2:41:c6:52:41:d2:
         04:09:13:9c:bf:bf:ed:b0:67:30:21:9b:03:1e:91:40:fc:56:
         c3:64:59:0d:22:fe:f7:62:6c:f9:5f:c9:e4:75:4a:bf:7e:ef:
         41:60:5e:88:9e:f0:78:c0:17:e7:61:75:86:a1:56:8c:50:51:
         1d:f3:b7:ba:49:10:38:9e
-----BEGIN CERTIFICATE-----
MIIF2jCCA8KgAwIBAgIJAMlEnL1SfZNhMA0GCSqGSIb3DQEBCwUAMBIxEDAOBgNV
BAMMB3B1bHAtY2EwHhcNMTgwMTI1MjAzODEwWhcNMjgwMTIzMjAzODEwWjARMQ8w
DQYDVQQDDAZlX2Z1bGwwggIiMA0GCSqGSIb3DQEBAQUAA4ICDwAwggIKAoICAQCm
njXFpvauE5UFgl3uDXmR+k+0SmeFeoiPZza85kgOWqQGgAZpFIJsNXMUPdiN3JpI
UZHVkB/qPmmo11D5IdiUwJYf82QYEGkHJjLnGMWi54/rXwun0vZzwpXFAnJ9otts
5nVMelAgbo3ZqqNqGI74xoDsu6CVNijHdm83KBVE2obHaGdmSvE9h4Hlbz+z3rUL
a4zBI+GsvikPWBPO1h1fnIkJzvs5vqt0rYRmtlOUXwwzMFIi953AQpa+WOUV9Seb
Bbs/tVFWXHOZ51WkEXuN+cqb5v9v2MKoCx81B3p5wy507qmA67DisR/beY4MlqF+
MN0kYlzDPfcNktI2bYd3HrfFnTiQZuU3aTxwVyOAIv9u+Zt5kd8OVZDi3zdPoAEy
7kMU1lHxXBoj678YVLCnO8LANVsJyPIvOryamErtnsEyUyytyC2+z/TdIG40bqif
TfruYqKCzvrJoUapxqAYCSvAYSWvMKF/4HqjIXUnuwdN7+2q2wc6GqSFpw2sZBG0
8EW9o5wyFnTK8OQVkLblj2SOiXGwi4nIReErVA9SXF/m2G4kig6gp+v0PXD1gRCt
lqlY0jtuHIUYt77iKQ4KJYUngixyVLpGBNzJMS9Hqq0BIMTCQqUnYkqEayo5g/H9
sFfFp2fL+OOV34jKVe4TmsHJmlpH7I1rwQHtRBY1dQIDAQABo4IBMjCCAS4wCQYD
VR0TBAIwADAfBgorBgEEAZIICQQBBBEMD2Zha2Utb3JkZXItbmFtZTAUBgsrBgEE
AZIICQINAQQFDAN5dW0wGQYMKwYBBAGSCAkCDQEBBAkMB1B1bHAtMTMwGQYMKwYB
BAGSCAkCDQECBAkMB3B1bHAtMTMwMwYMKwYBBAGSCAkCDQEGBCMMIXJlcG9zL3B1
bHAvcHVscC9mZWRvcmEtMTMveDg2XzY0LzAUBgsrBgEEAZIICQIOAQQFDAN5dW0w
GQYMKwYBBAGSCAkCDgEBBAkMB1B1bHAtMTQwGQYMKwYBBAGSCAkCDgECBAkMB3B1
bHAtMTQwMwYMKwYBBAGSCAkCDgEGBCMMIXJlcG9zL3B1bHAvcHVscC9mZWRvcmEt
MTQveDg2XzY0LzANBgkqhkiG9w0BAQsFAAOCAgEAQsr0CAmxSCdv8sgP1ZbX+I4i
+fUcoTO5dVnZ876B3/8G/DXpJf0D72Z0/yexUAJ/cO/wvyJORd+xhy7YrcInWD1e
P0XVnC1lcONtqeZgfyYJ2+H/XYPTG7jsWANoNsFKRfSjgPB4TQ421yx/e+SeeNUp
PE/F8eVWtVgcmmtyjLxP2fPyat5fx8it/SiE4R45cZET+nmH1z2Lm1xxpW8cjtL8
z4DCRmGOThe5CW29RdAkRMkI6THR9EEpgS7khVgE2QYV3LfrBGLF0iBMsT7dHiqM
Zt2SDuKP47zCPChiENUH/AhTr0WmxmXOiFGm83aeXxB/45m9gTqTGedXaKrBJjx8
rSEx17lKQMKdYgYaTuRnTSGIgg4nWwcNJr/GIZ4LKdGG6r4rtbT+OOeU7XIWIkK+
UHgtMh2V5l32KGSLUNmcmz33FELroiImfBPqKxISQkBWRLGBt4ZajRF6R6Mk2fI1
7pqhG/2bqf8A/GvAzIPy8/pMmOD4WKD6L1fF78q57PBDf6RFOwUqUV/3M2YNddRN
zeKWSOhalZHHAlMBOrke1y0gkHcVrIeN9bV+swQmuT8noOdgxRGnuLW64kHGUkHS
BAkTnL+/7bBnMCGbAx6RQPxWw2RZDSL+92Js+V/J5HVKv37vQWBeiJ7weMAX52F1
hqFWjFBRHfO3ukkQOJ4=
-----END CERTIFICATE-----
