Certificate:
    Data:
        Version: 3 (0x2)
        Serial Number:
            e0:f8:77:41:74:a3:f0:eb
    Signature Algorithm: sha256WithRSAEncryption
        Issuer: CN=pulp-ca
        Validity
            Not Before: Jan 25 17:35:39 2017 GMT
            Not After : Jan 23 17:35:39 2027 GMT
        Subject: CN=e_full
        Subject Public Key Info:
            Public Key Algorithm: rsaEncryption
                Public-Key: (4096 bit)
                Modulus:
                    00:c3:db:a6:d5:a0:d6:69:2b:a9:90:8f:7c:b1:e7:
                    1f:ae:8a:62:af:42:b4:a2:2e:ec:fd:73:2f:40:e5:
                    77:3d:b0:bf:87:df:76:e8:36:97:57:53:0c:b9:b0:
                    d3:d3:90:21:c5:4a:0e:15:31:ec:ee:e1:49:ff:81:
                    a3:ae:f9:4c:f4:18:09:7c:cf:9d:6f:80:d5:59:b7:
                    57:18:74:b2:0d:ef:c4:a0:56:c0:09:b4:da:a5:e5:
                    0e:e7:e0:0e:c3:ec:c6:c2:a6:53:63:29:bb:6f:fe:
                    82:da:98:d4:88:26:47:b2:16:1a:a9:0f:76:19:08:
                    49:3e:23:2c:ad:64:bc:08:42:e1:c7:e4:5b:85:48:
                    2a:7e:0b:40:ee:fe:26:6b:5f:e7:f7:cd:6d:f7:36:
                    01:4c:90:72:95:88:e7:52:5c:6e:42:d4:22:06:9f:
                    0b:3c:b8:2a:63:90:9d:42:5a:75:d9:c2:be:e2:ad:
                    1b:58:8a:f6:22:4f:1f:bc:49:a1:99:b6:24:a3:b1:
                    2a:c0:10:63:f4:8b:53:53:ae:8c:e4:99:2d:03:b4:
                    42:c1:38:d9:59:40:e1:61:50:5c:e9:70:48:6e:a9:
                    bc:f7:54:7d:81:cb:a1:e8:06:f7:6e:bb:f6:e9:14:
                    3d:8a:d4:3b:ed:ee:1c:ae:c1:9f:97:fd:01:e9:96:
                    c3:d6:38:f7:12:84:2c:b1:53:90:e8:7a:48:a9:26:
                    9a:7c:81:53:a5:67:60:d9:45:15:01:3d:23:ef:6b:
                    83:9d:71:e3:a1:a8:bd:2e:28:2f:69:12:1a:9d:f4:
                    07:ea:da:7d:69:42:5c:e8:b3:d6:3c:c0:52:e2:f3:
                    9f:6d:7d:12:b1:9f:4a:38:f3:8a:d2:06:e4:82:af:
                    5d:75:b5:c3:c4:44:4f:c4:d9:4e:4e:15:27:fe:8e:
                    46:46:e3:7f:41:51:eb:cc:12:90:68:2b:7f:83:e5:
                    4b:8e:e6:1d:23:e6:7a:07:b9:a3:9d:8d:dc:de:88:
                    89:f7:e8:38:e5:99:cd:b3:dd:ad:32:d1:6e:d1:ba:
                    7a:13:77:df:43:4d:e7:68:44:44:02:8f:f1:a7:0e:
                    55:14:36:ac:25:cc:40:61:71:86:cd:16:c9:55:31:
                    e4:2f:fc:99:5c:7e:a2:11:de:95:e7:80:29:3a:f7:
                    e0:ed:e1:4c:ba:8a:cf:8a:9a:71:df:d8:00:a5:56:
                    6f:af:b5:5a:db:09:a9:bf:b9:48:91:07:48:eb:af:
                    0e:a1:24:56:94:c7:f0:9b:f6:1f:b7:37:bd:38:f2:
                    ae:ab:4d:e0:f7:a0:8d:f7:c8:a7:51:54:ec:5b:d2:
                    69:2d:1b:06:2f:e0:dc:af:0e:58:da:91:05:1a:7d:
                    e5:63:27
                Exponent: 65537 (0x10001)
        X509v3 extensions:
            X509v3 Basic Constraints: 
                CA:FALSE
            1.3.6.1.4.1.2312.9.2.13.1.1: 
                ..Pulp-13
            1.3.6.1.4.1.2312.9.2.13.1.2: 
                ..pulp-13
            1.3.6.1.4.1.2312.9.2.13.1.6: 
                .!repos/pulp/pulp/fedora-13/x86_64/
            1.3.6.1.4.1.2312.9.2.14.1.1: 
                ..Pulp-14
            1.3.6.1.4.1.2312.9.2.14.1.2: 
                ..pulp-14
            1.3.6.1.4.1.2312.9.2.14.1.6: 
                .!repos/pulp/pulp/fedora-14/x86_64/
    Signature Algorithm: sha256WithRSAEncryption
         95:d1:f4:e9:15:ac:5b:b7:8a:d8:ba:6b:3c:3d:f0:f2:6b:06:
         cb:ad:66:7b:7a:78:f9:88:43:de:98:15:99:8b:ee:f6:29:99:
         f4:06:bf:ee:55:82:fe:ea:2a:95:f1:cd:f1:ea:79:fa:99:57:
         43:09:09:7d:f6:3d:58:36:b1:a4:40:fb:de:02:6d:11:90:50:
         22:db:55:c8:d8:7a:7b:fa:55:98:59:a8:32:79:94:af:63:ae:
         38:88:0c:b5:5c:91:15:a8:d9:a2:0b:2f:a6:43:84:40:cd:1e:
         8e:2e:c3:5a:e2:97:50:5f:5d:65:0c:be:37:72:fd:b6:47:32:
         42:37:9f:75:d8:0c:9f:da:8e:77:c7:f9:03:a6:41:f7:7e:07:
         28:66:88:1a:2e:26:96:c4:fd:90:d0:0e:07:c6:5c:f7:b3:a3:
         9e:5c:b2:84:45:74:29:be:c9:a3:f3:6e:2e:89:19:7f:ed:30:
         d0:e2:a0:01:84:be:3d:13:9e:e1:11:75:43:35:91:91:02:ec:
         3d:a3:1c:61:e2:23:2a:08:a2:6f:bf:8a:16:4a:40:31:28:f5:
         c4:93:69:0b:d9:2b:6e:2c:97:e5:bc:d8:0c:e9:fa:95:05:61:
         2a:04:24:16:4b:dc:fd:9e:2d:6c:86:5e:77:29:82:58:09:60:
         76:b1:21:e1:b1:ac:da:fa:9b:70:1d:1f:81:79:9e:ca:29:1b:
         af:d9:16:e1:2e:4d:67:6f:3b:e0:66:89:23:7d:8d:f9:5a:02:
         1c:3a:1d:48:c9:23:b4:78:24:e5:7c:a6:cf:3e:41:2e:5b:24:
         6b:91:b7:b0:89:41:c5:a1:a7:8f:4f:fa:5e:5f:5d:0e:e9:30:
         ad:ee:cf:ef:6b:7b:5c:eb:1b:87:5d:70:e4:b1:5f:36:cf:1a:
         e8:b2:52:56:a7:61:15:40:4f:05:c7:11:43:23:47:81:b4:6c:
         97:d8:b6:25:2f:f4:c0:68:08:c1:c7:b3:55:16:54:56:39:62:
         d1:e9:bc:e9:ab:16:ab:fd:4a:20:db:59:58:c6:65:d6:2c:b3:
         38:6a:c3:87:0e:04:cc:39:73:45:d6:98:d7:30:e2:15:03:33:
         31:3a:c9:e7:ba:02:29:83:61:2d:85:44:8c:10:3a:ab:22:45:
         06:c2:a2:7c:21:11:e8:24:b4:3d:77:c2:2f:31:79:b5:32:eb:
         02:b3:4e:e9:5f:5b:fe:d7:49:20:27:c6:02:78:83:f8:a1:fe:
         c0:d0:0f:e3:0a:26:bc:21:41:9c:58:23:53:74:30:8e:a1:be:
         7c:c6:20:01:3a:93:ef:61:9a:3d:9b:9b:01:6a:7f:b1:63:41:
         f9:2b:dd:71:d5:fb:b2:55
-----BEGIN CERTIFICATE-----
MIIFizCCA3OgAwIBAgIJAOD4d0F0o/DrMA0GCSqGSIb3DQEBCwUAMBIxEDAOBgNV
BAMMB3B1bHAtY2EwHhcNMTcwMTI1MTczNTM5WhcNMjcwMTIzMTczNTM5WjARMQ8w
DQYDVQQDDAZlX2Z1bGwwggIiMA0GCSqGSIb3DQEBAQUAA4ICDwAwggIKAoICAQDD
26bVoNZpK6mQj3yx5x+uimKvQrSiLuz9cy9A5Xc9sL+H33boNpdXUwy5sNPTkCHF
Sg4VMezu4Un/gaOu+Uz0GAl8z51vgNVZt1cYdLIN78SgVsAJtNql5Q7n4A7D7MbC
plNjKbtv/oLamNSIJkeyFhqpD3YZCEk+IyytZLwIQuHH5FuFSCp+C0Du/iZrX+f3
zW33NgFMkHKViOdSXG5C1CIGnws8uCpjkJ1CWnXZwr7irRtYivYiTx+8SaGZtiSj
sSrAEGP0i1NTrozkmS0DtELBONlZQOFhUFzpcEhuqbz3VH2By6HoBvduu/bpFD2K
1Dvt7hyuwZ+X/QHplsPWOPcShCyxU5DoekipJpp8gVOlZ2DZRRUBPSPva4OdceOh
qL0uKC9pEhqd9Afq2n1pQlzos9Y8wFLi859tfRKxn0o484rSBuSCr111tcPERE/E
2U5OFSf+jkZG439BUevMEpBoK3+D5UuO5h0j5noHuaOdjdzeiIn36Djlmc2z3a0y
0W7RunoTd99DTedoREQCj/GnDlUUNqwlzEBhcYbNFslVMeQv/JlcfqIR3pXngCk6
9+Dt4Uy6is+KmnHf2AClVm+vtVrbCam/uUiRB0jrrw6hJFaUx/Cb9h+3N7048q6r
TeD3oI33yKdRVOxb0mktGwYv4NyvDljakQUafeVjJwIDAQABo4HkMIHhMAkGA1Ud
EwQCMAAwGQYMKwYBBAGSCAkCDQEBBAkMB1B1bHAtMTMwGQYMKwYBBAGSCAkCDQEC
BAkMB3B1bHAtMTMwMwYMKwYBBAGSCAkCDQEGBCMMIXJlcG9zL3B1bHAvcHVscC9m
ZWRvcmEtMTMveDg2XzY0LzAZBgwrBgEEAZIICQIOAQEECQwHUHVscC0xNDAZBgwr
BgEEAZIICQIOAQIECQwHcHVscC0xNDAzBgwrBgEEAZIICQIOAQYEIwwhcmVwb3Mv
cHVscC9wdWxwL2ZlZG9yYS0xNC94ODZfNjQvMA0GCSqGSIb3DQEBCwUAA4ICAQCV
0fTpFaxbt4rYums8PfDyawbLrWZ7enj5iEPemBWZi+72KZn0Br/uVYL+6iqV8c3x
6nn6mVdDCQl99j1YNrGkQPveAm0RkFAi21XI2Hp7+lWYWagyeZSvY644iAy1XJEV
qNmiCy+mQ4RAzR6OLsNa4pdQX11lDL43cv22RzJCN5912Ayf2o53x/kDpkH3fgco
ZogaLiaWxP2Q0A4Hxlz3s6OeXLKERXQpvsmj824uiRl/7TDQ4qABhL49E57hEXVD
NZGRAuw9oxxh4iMqCKJvv4oWSkAxKPXEk2kL2StuLJflvNgM6fqVBWEqBCQWS9z9
ni1shl53KYJYCWB2sSHhsaza+ptwHR+BeZ7KKRuv2RbhLk1nbzvgZokjfY35WgIc
Oh1IySO0eCTlfKbPPkEuWyRrkbewiUHFoaePT/peX10O6TCt7s/va3tc6xuHXXDk
sV82zxroslJWp2EVQE8FxxFDI0eBtGyX2LYlL/TAaAjBx7NVFlRWOWLR6bzpqxar
/Uog21lYxmXWLLM4asOHDgTMOXNF1pjXMOIVAzMxOsnnugIpg2EthUSMEDqrIkUG
wqJ8IRHoJLQ9d8IvMXm1MusCs07pX1v+10kgJ8YCeIP4of7A0A/jCia8IUGcWCNT
dDCOob58xiABOpPvYZo9m5sBan+xY0H5K91x1fuyVQ==
-----END CERTIFICATE-----
