Certificate:
    Data:
        Version: 3 (0x2)
        Serial Number: 17500528385897726531 (0xf2de5dd85f130243)
    Signature Algorithm: sha1WithRSAEncryption
        Issuer: CN=pulp-ca
        Validity
            Not Before: May  9 19:52:17 2017 GMT
            Not After : May  7 19:52:17 2027 GMT
        Subject: CN=e_limited
        Subject Public Key Info:
            Public Key Algorithm: rsaEncryption
                Public-Key: (4096 bit)
                Modulus:
                    00:d9:3a:a1:bc:df:25:4a:7f:a5:dc:26:e0:63:71:
                    6c:dc:16:e5:bc:fd:3e:0f:4d:5a:fe:b6:6f:d5:6c:
                    8b:4f:c3:42:d6:86:40:d9:71:08:a4:8e:c7:af:30:
                    6a:40:af:08:b7:bb:5d:5b:2a:58:b2:cd:5f:2d:5d:
                    8a:5d:b4:3f:69:c2:ef:43:5a:93:9f:0a:9e:23:6f:
                    d5:ca:2f:15:79:c2:8c:a6:00:7c:0d:ab:a9:3c:3f:
                    45:34:15:b5:30:5c:1a:cc:4a:8a:9b:12:6a:fb:b8:
                    be:d2:79:c5:24:0d:f7:22:64:28:91:aa:48:42:b3:
                    57:27:2d:a4:cd:70:87:e0:c2:7f:0b:98:bc:7f:22:
                    3b:5c:47:d0:7c:51:c2:f7:5a:b0:a4:62:78:b1:b5:
                    3e:a9:b4:4c:a3:51:78:00:10:db:10:a6:84:dc:14:
                    a8:d9:a1:8d:28:72:43:dd:88:99:d2:2e:50:eb:0d:
                    24:48:b2:90:73:a8:67:c7:ca:b6:3a:b0:3d:69:19:
                    1d:a1:c5:bf:b7:73:2c:45:a0:0d:3d:1d:0f:88:56:
                    51:b0:01:6b:b9:4b:dc:04:90:48:43:17:90:af:01:
                    50:4e:7a:f9:54:da:b7:fe:15:47:84:34:1d:91:cb:
                    69:5f:26:c4:70:8a:6d:2a:0a:56:a3:39:96:49:dc:
                    81:fd:6d:19:df:e6:0a:3f:e5:7a:32:e9:ef:4a:87:
                    5a:89:83:2b:03:39:c5:54:fb:ba:89:b3:19:c1:d8:
                    c5:86:9b:ea:63:12:d1:1f:a3:97:73:5d:2f:88:25:
                    c4:3c:4d:31:8c:76:95:e0:58:e3:e8:45:8b:17:61:
                    67:f4:78:a2:7e:b8:18:64:8f:52:22:fd:a9:49:ba:
                    c2:a6:71:7e:07:57:3b:d4:58:0e:e2:2a:61:0c:d4:
                    ca:af:b2:55:04:5f:a7:8c:64:78:ba:60:d3:e9:20:
                    62:95:26:ee:3a:0f:56:92:7f:f5:36:7c:8a:65:77:
                    52:b7:e3:e1:72:df:ec:7c:83:86:98:18:1e:ea:bb:
                    e1:16:e4:2f:ea:0d:b3:ce:44:aa:cf:85:38:50:28:
                    24:50:7a:56:18:f0:e9:9e:b5:ec:67:dc:1e:29:e2:
                    b5:35:be:07:dc:fd:b4:88:30:e6:a9:c0:b7:51:80:
                    c3:5e:03:f0:ae:e8:77:81:86:b6:10:30:da:a6:f0:
                    be:e0:d9:48:e8:bb:33:da:ed:55:b4:a1:1b:63:1c:
                    41:1c:cb:07:a5:82:81:f7:6c:30:2b:61:e7:be:5a:
                    b4:7c:f1:d8:39:97:f5:6c:49:50:04:35:23:f6:12:
                    ab:b8:a9:48:67:da:9e:f4:5e:9b:dc:eb:c0:5a:e9:
                    52:29:cf
                Exponent: 65537 (0x10001)
        X509v3 extensions:
            X509v3 Basic Constraints: 
                CA:FALSE
            1.3.6.1.4.1.2312.9.4.1: 
                ..fake-order-name
            1.3.6.1.4.1.2312.9.2.14.1: 
                ..yum
            1.3.6.1.4.1.2312.9.2.14.1.1: 
                ..Pulp-14
            1.3.6.1.4.1.2312.9.2.14.1.2: 
                ..pulp-14
            1.3.6.1.4.1.2312.9.2.14.1.6: 
                .!repos/pulp/pulp/fedora-14/x86_64/
    Signature Algorithm: sha1WithRSAEncryption
         c6:a2:cb:b9:18:93:08:ec:18:9c:8f:ce:94:0b:aa:bb:3f:f1:
         96:bc:3d:a4:04:c1:af:2b:71:dc:8a:c3:a9:00:cf:49:a5:a6:
         be:ca:fc:f5:5b:15:e0:ac:78:09:3e:b1:26:65:85:05:62:5b:
         d5:1b:b0:6f:63:ac:7e:37:c5:6b:4d:30:dd:43:be:62:8f:5c:
         23:4a:65:8e:be:e9:da:d3:91:08:da:9b:14:d3:95:49:8d:8e:
         24:82:70:84:88:1b:c7:e2:99:23:8f:ab:26:57:9a:0c:6d:e1:
         67:e6:28:d6:75:ab:fb:aa:2e:b4:0e:0a:20:d8:16:f3:74:55:
         09:d1:8c:fc:4c:44:b1:d4:1a:9c:ec:ad:f2:12:45:0e:c9:8e:
         81:6c:b0:9d:93:2a:61:b7:3e:c6:2f:0b:00:9c:8b:a5:b5:92:
         fd:06:7b:aa:1b:5b:15:dd:ca:2b:3e:4c:75:bf:c8:4d:ea:c7:
         47:3f:60:f3:b0:a3:8f:43:65:2b:b0:2e:35:ee:cc:b5:ca:59:
         35:9d:31:38:74:05:2a:7f:7c:1b:dc:1a:c7:c0:70:88:78:dc:
         f1:0a:c1:35:f9:0b:76:95:08:9e:fb:dd:d1:1e:15:5a:bd:4a:
         eb:e3:1f:46:94:96:c8:18:9e:6d:f5:bf:8e:7a:bc:d2:21:ff:
         94:51:d5:cf:77:ac:e9:0a:db:28:a9:fd:f0:90:78:51:73:74:
         67:d8:9a:c0:64:7f:18:25:46:e7:2f:32:7f:c7:e5:19:d2:ab:
         3b:29:17:62:93:88:03:a4:ec:b4:0f:0d:d4:e9:ff:e9:61:93:
         6b:65:34:65:33:c3:23:4f:bd:61:9c:eb:6f:14:43:f1:6f:4d:
         a8:91:33:78:51:52:a3:53:d4:86:c9:e6:03:07:8e:57:b4:54:
         d7:fa:b7:5f:5b:c6:e4:34:c9:83:5c:08:96:d3:15:91:36:e4:
         41:0c:95:6b:4f:47:d2:25:bc:f1:cd:26:57:03:c8:6b:f5:1b:
         a7:6a:5d:14:4e:3b:7e:55:00:12:e3:ed:d1:cf:70:2f:0d:f3:
         ba:8b:8f:35:36:75:7d:37:bb:9f:81:47:01:5a:67:7c:8c:fe:
         3e:94:88:d0:e0:03:9e:b5:0c:70:2d:1d:b4:6d:ad:b7:ef:fb:
         ea:8d:c4:02:3d:af:73:c5:0c:64:fb:0e:95:6a:cc:ad:01:b4:
         a6:cf:71:c5:f7:6a:71:22:5e:d0:2e:6c:86:d2:f4:97:2a:47:
         92:50:48:f2:d3:62:08:14:7f:97:37:78:ab:dc:5b:30:7b:ba:
         dc:9c:d5:11:76:0a:46:bd:9f:ba:f2:60:2d:55:68:b6:47:e4:
         9d:74:27:6b:01:c7:f1:bb
-----BEGIN CERTIFICATE-----
MIIFWjCCA0KgAwIBAgIJAPLeXdhfEwJDMA0GCSqGSIb3DQEBBQUAMBIxEDAOBgNV
BAMTB3B1bHAtY2EwHhcNMTcwNTA5MTk1MjE3WhcNMjcwNTA3MTk1MjE3WjAUMRIw
EAYDVQQDFAllX2xpbWl0ZWQwggIiMA0GCSqGSIb3DQEBAQUAA4ICDwAwggIKAoIC
AQDZOqG83yVKf6XcJuBjcWzcFuW8/T4PTVr+tm/VbItPw0LWhkDZcQikjsevMGpA
rwi3u11bKliyzV8tXYpdtD9pwu9DWpOfCp4jb9XKLxV5woymAHwNq6k8P0U0FbUw
XBrMSoqbEmr7uL7SecUkDfciZCiRqkhCs1cnLaTNcIfgwn8LmLx/IjtcR9B8UcL3
WrCkYnixtT6ptEyjUXgAENsQpoTcFKjZoY0ockPdiJnSLlDrDSRIspBzqGfHyrY6
sD1pGR2hxb+3cyxFoA09HQ+IVlGwAWu5S9wEkEhDF5CvAVBOevlU2rf+FUeENB2R
y2lfJsRwim0qClajOZZJ3IH9bRnf5go/5Xoy6e9Kh1qJgysDOcVU+7qJsxnB2MWG
m+pjEtEfo5dzXS+IJcQ8TTGMdpXgWOPoRYsXYWf0eKJ+uBhkj1Ii/alJusKmcX4H
VzvUWA7iKmEM1MqvslUEX6eMZHi6YNPpIGKVJu46D1aSf/U2fIpld1K34+Fy3+x8
g4aYGB7qu+EW5C/qDbPORKrPhThQKCRQelYY8Ometexn3B4p4rU1vgfc/bSIMOap
wLdRgMNeA/Cu6HeBhrYQMNqm8L7g2UjouzPa7VW0oRtjHEEcywelgoH3bDArYee+
WrR88dg5l/VsSVAENSP2Equ4qUhn2p70Xpvc68Ba6VIpzwIDAQABo4GwMIGtMAkG
A1UdEwQCMAAwHwYKKwYBBAGSCAkEAQQRDA9mYWtlLW9yZGVyLW5hbWUwFAYLKwYB
BAGSCAkCDgEEBQwDeXVtMBkGDCsGAQQBkggJAg4BAQQJDAdQdWxwLTE0MBkGDCsG
AQQBkggJAg4BAgQJDAdwdWxwLTE0MDMGDCsGAQQBkggJAg4BBgQjDCFyZXBvcy9w
dWxwL3B1bHAvZmVkb3JhLTE0L3g4Nl82NC8wDQYJKoZIhvcNAQEFBQADggIBAMai
y7kYkwjsGJyPzpQLqrs/8Za8PaQEwa8rcdyKw6kAz0mlpr7K/PVbFeCseAk+sSZl
hQViW9UbsG9jrH43xWtNMN1DvmKPXCNKZY6+6drTkQjamxTTlUmNjiSCcISIG8fi
mSOPqyZXmgxt4WfmKNZ1q/uqLrQOCiDYFvN0VQnRjPxMRLHUGpzsrfISRQ7JjoFs
sJ2TKmG3PsYvCwCci6W1kv0Ge6obWxXdyis+THW/yE3qx0c/YPOwo49DZSuwLjXu
zLXKWTWdMTh0BSp/fBvcGsfAcIh43PEKwTX5C3aVCJ773dEeFVq9SuvjH0aUlsgY
nm31v456vNIh/5RR1c93rOkK2yip/fCQeFFzdGfYmsBkfxglRucvMn/H5RnSqzsp
F2KTiAOk7LQPDdTp/+lhk2tlNGUzwyNPvWGc628UQ/FvTaiRM3hRUqNT1IbJ5gMH
jle0VNf6t19bxuQ0yYNcCJbTFZE25EEMlWtPR9IlvPHNJlcDyGv1G6dqXRROO35V
ABLj7dHPcC8N87qLjzU2dX03u5+BRwFaZ3yM/j6UiNDgA561DHAtHbRtrbfv++qN
xAI9r3PFDGT7DpVqzK0BtKbPccX3anEiXtAubIbS9JcqR5JQSPLTYggUf5c3eKvc
WzB7utyc1RF2Cka9n7ryYC1VaLZH5J10J2sBx/G7
-----END CERTIFICATE-----
