Certificate:
    Data:
        Version: 3 (0x2)
        Serial Number:
            f2:7d:f4:b0:4c:fd:e8:11
    Signature Algorithm: sha256WithRSAEncryption
        Issuer: CN = pulp-ca
        Validity
            Not Before: Jan 25 20:38:10 2018 GMT
            Not After : Jan 23 20:38:10 2028 GMT
        Subject: CN = e_limited
        Subject Public Key Info:
            Public Key Algorithm: rsaEncryption
                Public-Key: (4096 bit)
                Modulus:
                    00:a3:2c:e7:f9:48:f9:c2:50:12:87:7f:d5:5f:76:
                    bf:42:02:98:f9:e8:ef:f8:59:46:33:ab:9a:6f:7b:
                    0c:56:11:17:19:a3:e9:ba:e6:b4:2c:8f:45:fe:ab:
                    47:e7:53:03:0c:1b:12:bc:cb:5f:fc:9a:df:d2:ba:
                    54:9c:99:88:0b:6b:f6:1a:80:10:a1:09:f6:69:8f:
                    9d:fe:ca:36:30:b7:d8:72:73:cf:67:f2:b8:2f:49:
                    f2:5c:6a:6e:47:73:6a:6a:04:da:d2:b9:78:97:ff:
                    e4:9a:6c:3d:2c:65:81:47:3b:d8:93:dc:5c:c8:2d:
                    f4:b4:e4:a3:20:62:93:80:f8:c6:95:1c:46:14:88:
                    8b:78:f9:29:87:c0:8d:7e:3a:d4:9f:55:2a:80:81:
                    62:07:ec:81:69:df:45:0b:76:cd:2f:e3:c2:41:29:
                    0b:cf:c8:a6:92:5c:c6:5b:c5:bf:9d:c3:85:1e:9d:
                    91:8b:0a:8c:ec:8f:bc:28:ea:76:7e:78:54:ab:c1:
                    e7:37:cf:26:67:ec:60:af:b4:c4:07:58:91:01:d7:
                    f8:4e:3a:01:d4:cb:f1:42:58:93:df:08:69:ec:3e:
                    ab:a9:5e:47:e8:f8:19:ff:73:6a:e9:23:42:ed:14:
                    e7:2e:57:50:3a:58:87:dd:ae:12:77:fe:93:0a:f5:
                    c7:3f:09:c0:c5:13:23:66:53:be:49:ed:02:5a:9b:
                    0a:e9:83:4a:00:9e:65:43:8a:c0:85:ee:e2:d7:84:
                    b1:af:fc:05:0b:a9:06:f4:6e:8d:fa:1e:12:c7:11:
                    5f:a7:b1:fc:87:8f:4d:ee:98:1c:e4:fc:2f:ef:d6:
                    b3:a7:94:7b:05:32:2a:0d:99:99:b9:03:3e:61:12:
                    6e:7a:8f:9c:99:cd:4d:ea:0c:9a:c5:0c:45:f3:ce:
                    cb:71:85:0c:80:fa:2c:60:19:95:bd:96:ca:8a:e4:
                    7d:bc:f7:7d:2a:43:18:e4:d0:fb:fd:99:b8:51:ba:
                    92:4d:21:d4:17:8c:5b:42:2a:75:8a:9c:01:44:53:
                    b6:b5:03:79:13:8a:0b:0a:fe:e2:11:e4:4a:30:7f:
                    d5:9f:c9:02:d7:ca:81:58:3e:ba:3b:23:36:0f:81:
                    79:24:91:17:5d:70:6b:b7:82:7b:e5:d4:80:0e:9b:
                    54:68:3d:8f:32:de:42:86:f5:24:7f:3b:d9:84:95:
                    5b:4d:41:3b:c2:26:1d:3d:b3:7e:54:db:7a:68:b8:
                    04:e8:69:a8:d0:9e:9f:d7:83:2d:81:de:3d:e5:31:
                    c9:49:55:42:bb:4b:ab:b5:63:45:8b:c0:43:64:f4:
                    67:85:7f:0f:e0:19:28:d3:51:56:5c:16:93:16:62:
                    11:b6:c5
                Exponent: 65537 (0x10001)
        X509v3 extensions:
            X509v3 Basic Constraints: 
                CA:FALSE
            1.3.6.1.4.1.2312.9.4.1: 
                ..fake-order-name
            1.3.6.1.4.1.2312.9.2.14.1: 
                ..yum
            1.3.6.1.4.1.2312.9.2.14.1.1: 
                ..Pulp-14
            1.3.6.1.4.1.2312.9.2.14.1.2: 
                ..pulp-14
            1.3.6.1.4.1.2312.9.2.14.1.6: 
                .!repos/pulp/pulp/fedora-14/x86_64/
    Signature Algorithm: sha256WithRSAEncryption
         6b:45:4e:10:25:18:4b:ea:bf:b1:ad:ed:4d:b0:80:70:ea:f5:
         d6:ec:9c:07:3e:0d:88:27:62:1f:23:00:64:25:bb:14:d8:a1:
         06:2b:67:89:a7:c9:fd:b8:47:fe:ed:02:aa:67:a5:cb:e4:a5:
         98:03:f3:14:27:41:6d:8b:21:19:0b:ba:0a:df:e3:90:e1:9f:
         a5:0a:10:a4:93:f3:91:8c:1a:1e:c4:8c:fa:fd:ce:77:3a:ea:
         b2:86:41:78:b5:d2:39:32:ef:9d:bc:d1:ca:8b:e0:29:81:5f:
         3f:5a:bb:90:1e:86:13:78:bc:00:4d:3b:da:9d:13:bc:54:d8:
         42:1a:d5:ae:b8:47:d1:4c:a1:49:6b:71:9c:b0:bc:14:c5:64:
         6d:85:ae:7c:23:65:df:db:16:85:95:fd:5d:18:1f:af:36:7e:
         8c:26:f3:fd:3c:22:4f:0e:70:c1:4d:05:20:73:29:37:cf:e4:
         ef:43:5f:32:8f:66:69:89:46:31:ff:03:3d:4d:be:fd:0d:3c:
         a1:bf:35:03:56:ea:ee:ae:1c:92:7c:99:12:e9:e4:bd:86:e0:
         9b:59:61:84:46:d7:8d:ae:f2:f3:5e:17:09:6a:87:f1:f9:44:
         34:21:23:09:17:2f:68:c1:ab:23:30:62:be:24:03:6d:88:7e:
         e3:b3:1d:a4:8e:d1:ac:ac:a8:05:39:20:51:b8:11:42:35:e7:
         08:50:89:47:0c:5f:c5:60:24:56:da:21:f1:be:0f:30:68:c9:
         77:2e:40:74:6d:16:b1:e4:2b:64:77:bf:3f:10:a2:0f:a0:2c:
         ca:81:24:11:02:a7:04:64:da:1d:d1:73:61:d7:16:d2:43:89:
         02:72:43:87:dc:62:44:ce:fe:d0:35:5e:f7:fd:65:c0:1d:5b:
         bf:d7:2a:ac:46:24:89:68:d9:73:0e:6f:60:bf:d5:f7:7e:64:
         c1:89:7b:ce:00:0d:9a:39:5e:fe:10:a3:2d:b6:d4:57:99:a9:
         a7:01:da:8e:45:6a:6a:b2:0e:01:8b:81:d1:4c:d6:d0:d0:8e:
         e0:d1:88:d7:0f:01:fc:a7:4a:dd:ce:13:a3:ae:eb:42:f2:13:
         f4:58:d5:d5:88:8f:52:1c:22:34:a5:16:13:bf:25:2c:3d:cd:
         86:41:11:0f:a3:27:54:a8:1d:c3:1b:5b:b2:62:fe:f8:e5:55:
         77:ef:4e:ef:b2:67:72:41:bc:ae:6e:0d:d8:7e:ae:ad:0e:f7:
         2a:ae:7a:d1:74:27:a1:1c:0b:e5:b4:a7:2b:97:31:5c:99:b1:
         fe:21:ff:8c:59:ac:83:28:e1:9c:3e:7f:83:7a:42:9c:84:ee:
         9a:ac:65:8d:2a:92:5c:57
-----BEGIN CERTIFICATE-----
MIIFWjCCA0KgAwIBAgIJAPJ99LBM/egRMA0GCSqGSIb3DQEBCwUAMBIxEDAOBgNV
BAMMB3B1bHAtY2EwHhcNMTgwMTI1MjAzODEwWhcNMjgwMTIzMjAzODEwWjAUMRIw
EAYDVQQDDAllX2xpbWl0ZWQwggIiMA0GCSqGSIb3DQEBAQUAA4ICDwAwggIKAoIC
AQCjLOf5SPnCUBKHf9Vfdr9CApj56O/4WUYzq5pvewxWERcZo+m65rQsj0X+q0fn
UwMMGxK8y1/8mt/SulScmYgLa/YagBChCfZpj53+yjYwt9hyc89n8rgvSfJcam5H
c2pqBNrSuXiX/+SabD0sZYFHO9iT3FzILfS05KMgYpOA+MaVHEYUiIt4+SmHwI1+
OtSfVSqAgWIH7IFp30ULds0v48JBKQvPyKaSXMZbxb+dw4UenZGLCozsj7wo6nZ+
eFSrwec3zyZn7GCvtMQHWJEB1/hOOgHUy/FCWJPfCGnsPqupXkfo+Bn/c2rpI0Lt
FOcuV1A6WIfdrhJ3/pMK9cc/CcDFEyNmU75J7QJamwrpg0oAnmVDisCF7uLXhLGv
/AULqQb0bo36HhLHEV+nsfyHj03umBzk/C/v1rOnlHsFMioNmZm5Az5hEm56j5yZ
zU3qDJrFDEXzzstxhQyA+ixgGZW9lsqK5H28930qQxjk0Pv9mbhRupJNIdQXjFtC
KnWKnAFEU7a1A3kTigsK/uIR5Eowf9WfyQLXyoFYPro7IzYPgXkkkRddcGu3gnvl
1IAOm1RoPY8y3kKG9SR/O9mElVtNQTvCJh09s35U23pouAToaajQnp/Xgy2B3j3l
MclJVUK7S6u1Y0WLwENk9GeFfw/gGSjTUVZcFpMWYhG2xQIDAQABo4GwMIGtMAkG
A1UdEwQCMAAwHwYKKwYBBAGSCAkEAQQRDA9mYWtlLW9yZGVyLW5hbWUwFAYLKwYB
BAGSCAkCDgEEBQwDeXVtMBkGDCsGAQQBkggJAg4BAQQJDAdQdWxwLTE0MBkGDCsG
AQQBkggJAg4BAgQJDAdwdWxwLTE0MDMGDCsGAQQBkggJAg4BBgQjDCFyZXBvcy9w
dWxwL3B1bHAvZmVkb3JhLTE0L3g4Nl82NC8wDQYJKoZIhvcNAQELBQADggIBAGtF
ThAlGEvqv7Gt7U2wgHDq9dbsnAc+DYgnYh8jAGQluxTYoQYrZ4mnyf24R/7tAqpn
pcvkpZgD8xQnQW2LIRkLugrf45Dhn6UKEKST85GMGh7EjPr9znc66rKGQXi10jky
75280cqL4CmBXz9au5AehhN4vABNO9qdE7xU2EIa1a64R9FMoUlrcZywvBTFZG2F
rnwjZd/bFoWV/V0YH682fowm8/08Ik8OcMFNBSBzKTfP5O9DXzKPZmmJRjH/Az1N
vv0NPKG/NQNW6u6uHJJ8mRLp5L2G4JtZYYRG142u8vNeFwlqh/H5RDQhIwkXL2jB
qyMwYr4kA22IfuOzHaSO0aysqAU5IFG4EUI15whQiUcMX8VgJFbaIfG+DzBoyXcu
QHRtFrHkK2R3vz8Qog+gLMqBJBECpwRk2h3Rc2HXFtJDiQJyQ4fcYkTO/tA1Xvf9
ZcAdW7/XKqxGJIlo2XMOb2C/1fd+ZMGJe84ADZo5Xv4Qoy221FeZqacB2o5Famqy
DgGLgdFM1tDQjuDRiNcPAfynSt3OE6Ou60LyE/RY1dWIj1IcIjSlFhO/JSw9zYZB
EQ+jJ1SoHcMbW7Ji/vjlVXfvTu+yZ3JBvK5uDdh+rq0O9yquetF0J6EcC+W0pyuX
MVyZsf4h/4xZrIMo4Zw+f4N6QpyE7pqsZY0qklxX
-----END CERTIFICATE-----
