Certificate:
    Data:
        Version: 3 (0x2)
        Serial Number:
            ea:f5:c2:13:be:77:06:d9
    Signature Algorithm: sha256WithRSAEncryption
        Issuer: CN=pulp-ca
        Validity
            Not Before: Jan 25 17:35:39 2017 GMT
            Not After : Jan 23 17:35:39 2027 GMT
        Subject: CN=e_limited
        Subject Public Key Info:
            Public Key Algorithm: rsaEncryption
                Public-Key: (4096 bit)
                Modulus:
                    00:c3:b8:8c:1f:f5:27:a9:aa:2e:8d:a3:c7:82:c9:
                    d4:82:40:98:10:97:3e:69:e4:19:23:02:01:fc:28:
                    3b:a8:5f:44:89:79:f5:15:38:ab:75:84:e5:81:c6:
                    f7:0c:e0:a2:c2:24:70:4c:6e:a2:82:ec:c4:d6:4e:
                    64:ab:8d:ad:0e:43:0b:4d:60:8a:bb:2b:35:86:d2:
                    85:b5:be:cb:93:35:78:9e:dc:a9:5d:7e:98:ea:25:
                    61:8c:a1:2f:44:80:25:0b:ee:14:a6:e5:bb:cf:a9:
                    e0:5f:a5:ca:62:42:68:48:81:71:99:66:79:63:ee:
                    0a:d5:48:26:53:33:d5:d6:8e:6f:8e:81:93:86:b6:
                    5d:f4:58:6b:09:69:ed:e1:ca:57:55:5f:63:89:6d:
                    69:e1:e9:c8:01:60:0f:3b:30:c2:34:36:ae:26:bb:
                    31:39:e1:2a:1d:44:12:24:a4:27:99:17:87:bf:26:
                    a3:d6:dc:9e:cd:93:44:e5:37:4d:00:da:a2:67:3a:
                    f8:b9:30:43:c9:19:26:f9:2d:e7:6f:26:e7:4b:ec:
                    20:f2:95:90:b0:5f:ca:77:2b:94:58:af:e2:a8:55:
                    64:29:de:f4:8a:92:09:9a:1d:8a:a3:bc:e9:97:31:
                    1d:9c:58:4a:33:5a:ea:07:09:03:76:4a:04:d1:88:
                    90:25:16:49:f3:ec:10:97:35:06:64:6e:f5:12:f3:
                    4b:48:f4:21:cf:b2:44:c0:aa:ac:3c:bc:a5:3d:ac:
                    40:5f:ce:d7:00:49:ec:51:d5:f9:3c:36:d4:e8:e6:
                    a5:3a:d6:cd:9d:c4:d6:a5:97:3e:35:0f:95:aa:bf:
                    62:77:5f:96:eb:93:ac:70:2f:61:45:a4:28:0b:73:
                    06:ab:00:9e:32:86:3d:ab:f3:dc:fc:08:fc:dc:ec:
                    b8:89:0e:e2:01:5e:1e:ae:c9:b9:c1:5c:7d:57:58:
                    61:5e:4b:ff:a6:2e:0a:1a:4b:19:e2:85:5a:f0:09:
                    07:85:69:ec:49:81:73:5f:2e:d7:5d:23:06:51:80:
                    0d:71:e0:81:24:cf:65:10:14:4f:b4:a2:e9:03:f1:
                    50:a7:98:62:e0:c4:3a:3b:55:e8:f7:d9:4d:7f:96:
                    01:1e:2b:d4:ff:85:da:5e:68:fa:20:1a:e4:d0:5e:
                    49:c9:79:b3:16:34:e9:43:f4:15:59:a7:7a:8d:fc:
                    cd:6d:7b:b6:c6:ed:0b:05:ce:85:f6:aa:9a:80:7f:
                    f5:78:c1:9a:ec:46:aa:e0:27:95:bd:e9:f5:83:46:
                    a9:31:2c:b9:d8:01:e4:0c:09:7b:0c:24:35:90:e0:
                    82:b9:f3:df:08:16:ae:af:7e:ed:c6:d7:18:1e:07:
                    6c:73:5b
                Exponent: 65537 (0x10001)
        X509v3 extensions:
            X509v3 Basic Constraints: 
                CA:FALSE
            1.3.6.1.4.1.2312.9.2.14.1.1: 
                ..Pulp-14
            1.3.6.1.4.1.2312.9.2.14.1.2: 
                ..pulp-14
            1.3.6.1.4.1.2312.9.2.14.1.6: 
                .!repos/pulp/pulp/fedora-14/x86_64/
    Signature Algorithm: sha256WithRSAEncryption
         67:0f:8f:b3:b4:6d:ac:03:11:62:8d:e2:ec:50:0d:1e:0f:04:
         d4:50:04:8c:32:a5:87:82:42:e5:d3:a3:92:64:e7:c3:ab:ef:
         cc:28:15:3e:24:cb:47:c3:b7:3d:4c:d3:8e:00:6a:b7:66:85:
         25:aa:40:e3:4d:0f:92:b5:58:96:11:65:fb:96:81:7d:70:f1:
         fc:73:ad:79:ec:89:9d:ef:5b:20:9c:5e:53:61:db:59:f3:89:
         2e:e8:7b:ba:f7:be:b9:7b:0b:d9:be:88:43:b4:52:8d:1a:0e:
         3a:61:79:ce:bc:76:02:15:6c:a9:fb:b0:6f:b0:0d:27:f5:86:
         b1:48:45:36:35:d8:29:69:73:54:ce:e4:4c:59:69:7c:2c:19:
         16:86:e2:bd:88:b1:c1:df:16:b9:40:49:81:57:95:16:8a:bc:
         4b:37:9c:22:36:96:de:5d:60:dc:97:e1:a3:42:25:f3:9e:74:
         78:a3:df:8a:4c:da:f8:7e:ff:74:d0:01:a9:11:d3:96:3f:ed:
         66:40:dd:a2:0b:c5:ab:be:03:b2:30:10:39:d1:68:e6:74:79:
         f4:d3:78:ec:7a:3d:e4:1a:ce:f7:0d:43:c5:e2:74:72:c8:1b:
         60:41:2c:46:02:6a:47:b5:47:ee:3b:09:2c:bf:6b:e7:c0:fc:
         40:37:0a:27:81:20:27:a1:64:f6:d0:a3:8a:b3:b0:c3:38:42:
         bc:04:7f:26:f3:34:f2:8a:59:6e:29:18:42:36:68:b8:6f:2d:
         f2:ab:34:de:f1:07:f6:3b:b6:75:65:2d:7b:24:95:ed:90:9d:
         98:5c:b0:dc:2a:95:3d:00:f2:68:4e:7a:e9:6a:90:10:e2:24:
         2f:65:0f:72:a6:61:39:93:a6:47:a3:c2:1d:f5:83:ad:7d:2a:
         47:5b:0b:8d:df:e7:29:5a:28:88:36:4d:51:7a:56:44:78:21:
         35:a2:03:b9:da:fc:81:af:9a:0b:c2:05:e4:be:ff:4a:33:74:
         8d:4d:f8:cc:51:99:c3:8f:c9:f7:5a:70:89:7c:74:62:bb:8a:
         df:34:6f:5d:43:11:22:2a:dc:90:17:04:be:5a:69:9c:54:77:
         06:19:1c:b9:89:3e:be:de:94:f7:19:97:dd:24:52:18:5b:8a:
         60:f5:d9:3b:ac:e2:9e:13:7e:82:d7:5a:be:d1:56:ca:ea:8d:
         fb:26:d1:d4:fb:2e:ba:31:e4:4e:cc:5d:10:26:eb:97:f9:b7:
         ba:7d:07:44:c0:b7:6f:15:c7:78:d3:b3:6f:86:62:8b:48:7d:
         f7:6c:aa:a6:37:97:26:df:05:2a:f2:46:b8:13:fa:29:f9:8b:
         30:02:cd:a2:e0:09:bf:5d
-----BEGIN CERTIFICATE-----
MIIFITCCAwmgAwIBAgIJAOr1whO+dwbZMA0GCSqGSIb3DQEBCwUAMBIxEDAOBgNV
BAMMB3B1bHAtY2EwHhcNMTcwMTI1MTczNTM5WhcNMjcwMTIzMTczNTM5WjAUMRIw
EAYDVQQDDAllX2xpbWl0ZWQwggIiMA0GCSqGSIb3DQEBAQUAA4ICDwAwggIKAoIC
AQDDuIwf9Sepqi6No8eCydSCQJgQlz5p5BkjAgH8KDuoX0SJefUVOKt1hOWBxvcM
4KLCJHBMbqKC7MTWTmSrja0OQwtNYIq7KzWG0oW1vsuTNXie3KldfpjqJWGMoS9E
gCUL7hSm5bvPqeBfpcpiQmhIgXGZZnlj7grVSCZTM9XWjm+OgZOGtl30WGsJae3h
yldVX2OJbWnh6cgBYA87MMI0Nq4muzE54SodRBIkpCeZF4e/JqPW3J7Nk0TlN00A
2qJnOvi5MEPJGSb5LedvJudL7CDylZCwX8p3K5RYr+KoVWQp3vSKkgmaHYqjvOmX
MR2cWEozWuoHCQN2SgTRiJAlFknz7BCXNQZkbvUS80tI9CHPskTAqqw8vKU9rEBf
ztcASexR1fk8NtTo5qU61s2dxNallz41D5Wqv2J3X5brk6xwL2FFpCgLcwarAJ4y
hj2r89z8CPzc7LiJDuIBXh6uybnBXH1XWGFeS/+mLgoaSxnihVrwCQeFaexJgXNf
LtddIwZRgA1x4IEkz2UQFE+0oukD8VCnmGLgxDo7Vej32U1/lgEeK9T/hdpeaPog
GuTQXknJebMWNOlD9BVZp3qN/M1te7bG7QsFzoX2qpqAf/V4wZrsRqrgJ5W96fWD
RqkxLLnYAeQMCXsMJDWQ4IK5898IFq6vfu3G1xgeB2xzWwIDAQABo3gwdjAJBgNV
HRMEAjAAMBkGDCsGAQQBkggJAg4BAQQJDAdQdWxwLTE0MBkGDCsGAQQBkggJAg4B
AgQJDAdwdWxwLTE0MDMGDCsGAQQBkggJAg4BBgQjDCFyZXBvcy9wdWxwL3B1bHAv
ZmVkb3JhLTE0L3g4Nl82NC8wDQYJKoZIhvcNAQELBQADggIBAGcPj7O0bawDEWKN
4uxQDR4PBNRQBIwypYeCQuXTo5Jk58Or78woFT4ky0fDtz1M044AardmhSWqQONN
D5K1WJYRZfuWgX1w8fxzrXnsiZ3vWyCcXlNh21nziS7oe7r3vrl7C9m+iEO0Uo0a
Djphec68dgIVbKn7sG+wDSf1hrFIRTY12Clpc1TO5ExZaXwsGRaG4r2IscHfFrlA
SYFXlRaKvEs3nCI2lt5dYNyX4aNCJfOedHij34pM2vh+/3TQAakR05Y/7WZA3aIL
xau+A7IwEDnRaOZ0efTTeOx6PeQazvcNQ8XidHLIG2BBLEYCake1R+47CSy/a+fA
/EA3CieBICehZPbQo4qzsMM4QrwEfybzNPKKWW4pGEI2aLhvLfKrNN7xB/Y7tnVl
LXskle2QnZhcsNwqlT0A8mhOeulqkBDiJC9lD3KmYTmTpkejwh31g619KkdbC43f
5ylaKIg2TVF6VkR4ITWiA7na/IGvmgvCBeS+/0ozdI1N+MxRmcOPyfdacIl8dGK7
it80b11DESIq3JAXBL5aaZxUdwYZHLmJPr7elPcZl90kUhhbimD12Tus4p4TfoLX
Wr7RVsrqjfsm0dT7Lrox5E7MXRAm65f5t7p9B0TAt28Vx3jTs2+GYotIffdsqqY3
lybfBSryRrgT+in5izACzaLgCb9d
-----END CERTIFICATE-----
