Certificate:
    Data:
        Version: 3 (0x2)
        Serial Number:
            9c:3f:f8:75:8a:16:18:b6
    Signature Algorithm: sha256WithRSAEncryption
        Issuer: CN = pulp-ca
        Validity
            Not Before: Jan 25 20:38:11 2018 GMT
            Not After : Jan 23 20:38:11 2028 GMT
        Subject: CN = e_variable
        Subject Public Key Info:
            Public Key Algorithm: rsaEncryption
                Public-Key: (4096 bit)
                Modulus:
                    00:ea:a6:10:59:77:6a:2a:7d:1f:cc:0d:fd:b2:b0:
                    c8:1c:7e:33:8b:01:31:6d:71:a9:ab:e2:48:fa:31:
                    fa:27:fa:4a:52:6c:a7:23:57:88:05:cb:a0:0a:d5:
                    a9:c1:46:8b:74:4e:96:7a:8a:ca:75:74:1b:8b:22:
                    3b:29:35:78:f1:36:85:82:39:6f:7b:5e:f3:af:a1:
                    1d:3b:0e:0e:ff:b0:57:ad:1c:e6:08:87:83:32:10:
                    00:8b:cd:7b:4d:f3:23:4e:d7:b6:fb:13:d2:55:c0:
                    63:b5:b7:ce:e3:eb:3d:cc:05:58:c2:81:97:c9:a5:
                    7c:da:74:58:bb:71:e9:3b:37:5d:6b:25:f8:47:95:
                    d7:4d:a8:c9:1a:e6:42:62:95:d6:3d:89:e3:19:0f:
                    3b:5d:2c:4d:72:bf:a4:ad:64:8d:f9:a9:ad:1e:55:
                    39:c9:db:03:60:d2:95:6a:7f:5f:a3:e6:f2:3d:29:
                    a4:af:e5:57:86:d8:29:89:50:4e:22:bd:e5:0f:44:
                    70:d3:6c:45:63:31:02:61:12:c6:9c:af:3d:12:12:
                    35:5e:a4:af:70:ed:f6:3c:a5:a6:ad:d3:8c:ab:9e:
                    8e:b2:c3:87:96:63:55:83:05:bf:76:39:0c:56:98:
                    e9:2e:10:03:bb:7c:9e:0c:6f:5b:fb:dd:b2:44:ee:
                    03:14:22:9f:0d:27:0d:13:0d:1d:e3:07:d2:ef:4f:
                    af:87:cb:ba:c7:89:84:e5:30:95:f2:18:54:51:1a:
                    c7:81:16:75:07:63:00:35:53:cd:e3:19:ab:e7:7b:
                    9b:31:5d:47:34:c1:36:a5:5b:1f:57:87:3e:62:2c:
                    c2:ae:c3:fa:77:4e:75:81:f1:46:99:4f:eb:8c:c0:
                    ae:6e:6c:5b:8c:7a:a2:14:d9:a7:43:a8:cb:20:89:
                    e7:45:05:a8:0f:8b:0c:9c:a1:f5:22:5e:56:06:f6:
                    7d:e8:b9:39:85:4e:15:e8:64:6c:fc:44:cc:f8:75:
                    4d:3f:d6:89:33:c8:83:61:a3:f6:0f:7f:e5:34:8a:
                    0d:f0:ad:00:66:b1:ae:73:1a:40:95:4b:58:30:e8:
                    2a:61:3c:73:a0:59:c3:55:9f:9e:ab:27:08:ed:fa:
                    c6:97:56:1c:2e:be:30:56:29:39:31:c9:38:28:5f:
                    fd:26:ea:bb:cf:4b:a2:0b:f4:c3:6d:bd:bc:7a:1b:
                    fe:37:db:40:4a:ed:05:fe:a3:f2:5b:0a:a3:56:38:
                    8d:bb:3b:73:21:28:8b:ac:98:e5:b6:71:db:85:39:
                    d9:39:78:6c:0d:f7:15:ff:ff:ba:c6:cb:2f:2a:62:
                    fb:d5:61:1c:93:7b:82:97:79:cb:95:a7:26:e2:99:
                    70:8d:47
                Exponent: 65537 (0x10001)
        X509v3 extensions:
            X509v3 Basic Constraints: 
                CA:FALSE
            1.3.6.1.4.1.2312.9.4.1: 
                ..fake-order-name
            1.3.6.1.4.1.2312.9.2.13.1: 
                ..yum
            1.3.6.1.4.1.2312.9.2.13.1.1: 
                ..Pulp Production Fedora 13
            1.3.6.1.4.1.2312.9.2.13.1.2: 
                .pulp-prod-f13
            1.3.6.1.4.1.2312.9.2.13.1.6: 
                .$repos/pulp/pulp/fedora-13/$basearch/
            1.3.6.1.4.1.2312.9.2.14.1: 
                ..yum
            1.3.6.1.4.1.2312.9.2.14.1.1: 
                ..Pulp Production Fedora 14
            1.3.6.1.4.1.2312.9.2.14.1.2: 
                .pulp-prod-f14
            1.3.6.1.4.1.2312.9.2.14.1.6: 
                .$repos/pulp/pulp/fedora-14/$basearch/
    Signature Algorithm: sha256WithRSAEncryption
         70:7d:33:4f:ab:3e:f0:ed:d1:83:6b:e8:6a:30:16:82:9c:e9:
         88:5b:8f:bf:df:8d:b4:07:e2:b7:d8:90:af:0b:b2:88:85:d8:
         32:d0:cb:cc:52:ac:86:47:81:15:22:74:aa:31:4f:57:e2:da:
         92:3c:4f:89:13:11:8c:d9:1e:ac:0f:0c:74:a7:0c:cc:0e:7d:
         a6:6e:d1:16:9d:5e:de:db:d3:52:69:c7:d0:b3:8c:06:6e:e6:
         58:c0:81:ff:fc:52:f5:ee:50:02:e1:41:35:63:70:e3:14:44:
         ae:89:a1:12:20:8e:2a:15:73:4b:c5:4b:b1:94:dd:15:9d:a9:
         81:57:80:c4:99:bc:bd:c4:75:7d:0d:fe:7f:a8:4d:9e:f3:93:
         47:e6:25:a9:82:3a:75:87:00:79:45:35:db:dd:13:55:5d:e3:
         6a:82:06:60:7a:a3:71:9c:de:b6:34:9e:08:2b:d7:ec:a7:32:
         64:de:09:09:f4:49:ad:b3:49:8a:9f:30:74:e9:3a:da:b8:02:
         37:53:02:be:b0:47:cb:49:03:45:62:21:8f:d4:9a:92:48:a2:
         04:d2:be:60:32:e8:2d:9e:89:0e:52:70:3a:37:e4:08:51:18:
         25:8c:2f:a3:9d:56:9b:5b:a0:41:89:54:dc:20:88:d0:7a:0f:
         2e:67:4b:32:48:59:d5:e2:79:b5:18:d5:f6:a8:33:78:5a:d2:
         c2:c3:10:57:32:d1:72:d4:24:02:5c:59:46:35:89:c5:88:13:
         79:ca:16:c7:88:c5:3d:9e:90:b3:89:7d:5c:5e:61:5c:73:ef:
         41:ac:60:85:b6:61:b9:21:40:2e:8e:24:bd:21:f9:04:60:6d:
         4f:b0:1c:21:49:3a:24:58:21:5d:76:c0:98:eb:00:65:42:bc:
         13:8b:44:20:4d:02:63:65:05:25:da:ec:11:85:d6:c1:d7:2b:
         d8:e1:a4:6d:b1:27:81:52:52:73:a4:dd:b5:96:6d:e6:69:65:
         bf:0c:dd:50:41:75:b9:30:06:97:e9:83:05:04:2b:40:f0:e4:
         63:7c:ac:1d:d5:9a:d4:1d:60:20:68:d5:80:d8:7b:02:13:26:
         84:d7:09:35:18:31:71:95:5d:d0:ac:6d:2a:3a:49:4c:4f:08:
         28:40:1b:ef:f9:2c:6e:45:f8:00:38:79:95:ee:ee:ef:07:e9:
         ba:46:1d:d1:54:a2:6d:06:fa:a5:ca:fc:87:1e:c8:1c:fb:00:
         fc:02:69:1e:bf:42:6e:ff:6e:34:46:85:0b:59:3c:3c:0d:ff:
         85:9a:4b:c0:62:21:80:88:76:aa:54:e1:82:8a:79:f7:41:cd:
         8f:02:ba:50:e4:c1:ea:70
-----BEGIN CERTIFICATE-----
MIIGFDCCA/ygAwIBAgIJAJw/+HWKFhi2MA0GCSqGSIb3DQEBCwUAMBIxEDAOBgNV
BAMMB3B1bHAtY2EwHhcNMTgwMTI1MjAzODExWhcNMjgwMTIzMjAzODExWjAVMRMw
EQYDVQQDDAplX3ZhcmlhYmxlMIICIjANBgkqhkiG9w0BAQEFAAOCAg8AMIICCgKC
AgEA6qYQWXdqKn0fzA39srDIHH4ziwExbXGpq+JI+jH6J/pKUmynI1eIBcugCtWp
wUaLdE6WeorKdXQbiyI7KTV48TaFgjlve17zr6EdOw4O/7BXrRzmCIeDMhAAi817
TfMjTte2+xPSVcBjtbfO4+s9zAVYwoGXyaV82nRYu3HpOzddayX4R5XXTajJGuZC
YpXWPYnjGQ87XSxNcr+krWSN+amtHlU5ydsDYNKVan9fo+byPSmkr+VXhtgpiVBO
Ir3lD0Rw02xFYzECYRLGnK89EhI1XqSvcO32PKWmrdOMq56OssOHlmNVgwW/djkM
VpjpLhADu3yeDG9b+92yRO4DFCKfDScNEw0d4wfS70+vh8u6x4mE5TCV8hhUURrH
gRZ1B2MANVPN4xmr53ubMV1HNME2pVsfV4c+YizCrsP6d051gfFGmU/rjMCubmxb
jHqiFNmnQ6jLIInnRQWoD4sMnKH1Il5WBvZ96Lk5hU4V6GRs/ETM+HVNP9aJM8iD
YaP2D3/lNIoN8K0AZrGucxpAlUtYMOgqYTxzoFnDVZ+eqycI7frGl1YcLr4wVik5
Mck4KF/9Juq7z0uiC/TDbb28ehv+N9tASu0F/qPyWwqjVjiNuztzISiLrJjltnHb
hTnZOXhsDfcV//+6xssvKmL71WEck3uCl3nLlacm4plwjUcCAwEAAaOCAWgwggFk
MAkGA1UdEwQCMAAwHwYKKwYBBAGSCAkEAQQRDA9mYWtlLW9yZGVyLW5hbWUwFAYL
KwYBBAGSCAkCDQEEBQwDeXVtMCsGDCsGAQQBkggJAg0BAQQbDBlQdWxwIFByb2R1
Y3Rpb24gRmVkb3JhIDEzMB8GDCsGAQQBkggJAg0BAgQPDA1wdWxwLXByb2QtZjEz
MDYGDCsGAQQBkggJAg0BBgQmDCRyZXBvcy9wdWxwL3B1bHAvZmVkb3JhLTEzLyRi
YXNlYXJjaC8wFAYLKwYBBAGSCAkCDgEEBQwDeXVtMCsGDCsGAQQBkggJAg4BAQQb
DBlQdWxwIFByb2R1Y3Rpb24gRmVkb3JhIDE0MB8GDCsGAQQBkggJAg4BAgQPDA1w
dWxwLXByb2QtZjE0MDYGDCsGAQQBkggJAg4BBgQmDCRyZXBvcy9wdWxwL3B1bHAv
ZmVkb3JhLTE0LyRiYXNlYXJjaC8wDQYJKoZIhvcNAQELBQADggIBAHB9M0+rPvDt
0YNr6GowFoKc6Yhbj7/fjbQH4rfYkK8LsoiF2DLQy8xSrIZHgRUidKoxT1fi2pI8
T4kTEYzZHqwPDHSnDMwOfaZu0RadXt7b01Jpx9CzjAZu5ljAgf/8UvXuUALhQTVj
cOMURK6JoRIgjioVc0vFS7GU3RWdqYFXgMSZvL3EdX0N/n+oTZ7zk0fmJamCOnWH
AHlFNdvdE1Vd42qCBmB6o3Gc3rY0nggr1+ynMmTeCQn0Sa2zSYqfMHTpOtq4AjdT
Ar6wR8tJA0ViIY/UmpJIogTSvmAy6C2eiQ5ScDo35AhRGCWML6OdVptboEGJVNwg
iNB6Dy5nSzJIWdXiebUY1faoM3ha0sLDEFcy0XLUJAJcWUY1icWIE3nKFseIxT2e
kLOJfVxeYVxz70GsYIW2YbkhQC6OJL0h+QRgbU+wHCFJOiRYIV12wJjrAGVCvBOL
RCBNAmNlBSXa7BGF1sHXK9jhpG2xJ4FSUnOk3bWWbeZpZb8M3VBBdbkwBpfpgwUE
K0Dw5GN8rB3VmtQdYCBo1YDYewITJoTXCTUYMXGVXdCsbSo6SUxPCChAG+/5LG5F
+AA4eZXu7u8H6bpGHdFUom0G+qXK/IceyBz7APwCaR6/Qm7/bjRGhQtZPDwN/4Wa
S8BiIYCIdqpU4YKKefdBzY8CulDkwepw
-----END CERTIFICATE-----
