Certificate:
    Data:
        Version: 3 (0x2)
        Serial Number: 13083026006328962815 (0xb5903ed5fe6f6eff)
    Signature Algorithm: sha1WithRSAEncryption
        Issuer: CN=pulp-ca
        Validity
            Not Before: May  9 19:52:25 2017 GMT
            Not After : May  7 19:52:25 2027 GMT
        Subject: CN=e_variable
        Subject Public Key Info:
            Public Key Algorithm: rsaEncryption
                Public-Key: (4096 bit)
                Modulus:
                    00:96:6d:e4:a8:8e:8f:89:1a:08:eb:bd:1f:0c:bd:
                    c9:0f:ce:c4:cf:ff:7c:36:8a:70:02:e5:4e:a8:1a:
                    47:56:f0:d8:68:8c:2e:fe:d3:e9:5e:46:f7:90:e6:
                    5e:a1:f5:80:a1:16:6b:37:b1:9c:7f:dc:54:28:9b:
                    bc:f8:a4:7d:0d:7b:0a:c7:85:86:ba:9e:0f:f4:c7:
                    89:13:f4:b0:45:b3:b2:51:26:c1:c5:ec:67:07:fd:
                    e1:f3:7b:8f:a4:01:60:4c:b1:28:cf:9e:64:71:52:
                    ea:fd:50:51:60:5b:b2:a7:80:01:21:0a:90:c0:41:
                    76:b5:d6:1a:9a:83:62:81:e4:99:e7:03:a1:14:b8:
                    80:2d:fe:b5:3f:82:8d:fe:1c:34:8f:02:31:a1:4f:
                    2c:e2:d4:6c:42:ce:76:a0:57:0b:03:59:41:cc:52:
                    35:1f:24:72:3d:e4:38:0f:ba:a8:65:81:83:e1:f0:
                    51:e9:e5:6c:c7:e2:5b:67:63:2a:77:dd:03:db:21:
                    50:70:5e:62:37:f1:3e:2b:e6:59:29:4c:80:e4:1d:
                    9e:b1:1b:9d:5a:6b:34:f4:47:82:23:0f:49:1c:95:
                    e0:53:48:f2:b2:e6:c3:90:55:98:af:1a:38:d7:1f:
                    c1:3d:99:5b:58:4a:89:65:95:13:b3:88:cc:f9:fe:
                    f9:54:ef:d0:3c:1c:d7:20:cc:70:d6:47:19:15:6f:
                    96:03:a9:4c:98:ae:45:bf:cc:a1:b3:e6:67:2b:95:
                    0c:ed:b3:c3:89:67:08:b0:62:63:43:f7:3b:e5:08:
                    2c:df:21:03:37:71:ad:2d:ed:c4:3e:7f:4f:3f:c8:
                    12:50:71:e4:34:60:c2:31:41:7a:10:62:ee:b2:c9:
                    09:6e:7c:8e:51:7b:49:53:b3:82:77:55:13:e7:81:
                    d1:9a:0a:6f:fc:3a:a6:46:3d:08:bc:b1:93:5a:33:
                    1a:a7:87:52:62:61:30:7f:b5:0a:b2:a6:39:fd:f4:
                    2f:fa:e4:9c:10:7f:03:e8:29:63:b8:be:8c:16:18:
                    ca:21:4c:2b:03:b3:7d:8f:fc:23:d4:3c:89:0b:8c:
                    c6:87:b8:20:53:df:4f:c2:7d:64:2b:05:49:fd:81:
                    e4:c2:88:c5:a7:d4:31:28:7d:ba:b2:3f:0c:a4:b1:
                    31:ff:ea:70:c6:4f:36:49:8a:d4:ec:5c:c8:54:9b:
                    78:bf:de:14:26:f9:d0:a9:de:75:6d:e3:30:8d:b0:
                    a4:10:75:e1:b5:f9:df:3a:d5:b0:b0:f8:13:57:69:
                    73:68:4d:40:e5:c4:1a:b9:f3:b2:71:0b:14:ed:d8:
                    e8:4e:7a:f1:02:32:9c:34:fd:ca:b9:96:78:1f:7a:
                    b1:34:27
                Exponent: 65537 (0x10001)
        X509v3 extensions:
            X509v3 Basic Constraints: 
                CA:FALSE
            1.3.6.1.4.1.2312.9.4.1: 
                ..fake-order-name
            1.3.6.1.4.1.2312.9.2.13.1: 
                ..yum
            1.3.6.1.4.1.2312.9.2.13.1.1: 
                ..Pulp Production Fedora 13
            1.3.6.1.4.1.2312.9.2.13.1.2: 
                .pulp-prod-f13
            1.3.6.1.4.1.2312.9.2.13.1.6: 
                .$repos/pulp/pulp/fedora-13/$basearch/
            1.3.6.1.4.1.2312.9.2.14.1: 
                ..yum
            1.3.6.1.4.1.2312.9.2.14.1.1: 
                ..Pulp Production Fedora 14
            1.3.6.1.4.1.2312.9.2.14.1.2: 
                .pulp-prod-f14
            1.3.6.1.4.1.2312.9.2.14.1.6: 
                .$repos/pulp/pulp/fedora-14/$basearch/
    Signature Algorithm: sha1WithRSAEncryption
         13:92:0c:3e:26:b3:c5:6e:0a:2b:cf:10:39:ad:ae:a1:ca:b0:
         9f:7b:11:79:4f:54:b5:26:cb:a9:80:4a:6b:18:e0:3d:fe:5b:
         ca:cd:e0:1f:25:a9:8a:54:eb:f1:c0:c8:99:7b:87:3f:c6:57:
         8a:37:e0:20:01:dd:0a:c4:26:71:17:27:85:12:70:c3:6f:ca:
         84:2c:12:e2:94:89:2a:99:55:e3:5b:4c:0e:18:8a:37:a6:e4:
         fc:e6:64:2a:cb:4e:07:76:e5:47:f5:a1:fc:82:26:b0:a3:bf:
         bf:57:18:f8:2f:ca:5a:6e:b6:58:35:e1:b5:e8:89:44:03:07:
         7f:cb:5f:bf:79:28:8d:b9:ce:27:c7:bc:9e:d2:be:d5:93:3c:
         63:10:12:25:41:ba:28:db:c8:bf:8b:e9:bc:b6:88:29:06:61:
         2e:d7:c0:67:d8:33:cb:dc:ab:9e:6c:fc:73:eb:81:98:b9:59:
         d5:8f:14:a6:63:57:0b:14:39:28:ec:ee:e8:ea:27:7c:ed:c4:
         22:07:21:74:2a:91:ff:99:05:e2:e6:66:84:b2:c8:7a:77:ac:
         ac:91:fb:9d:80:b5:95:4e:80:73:81:7a:91:c2:72:e9:54:22:
         39:89:25:f7:ad:ed:88:a6:95:a3:ce:c6:77:a9:59:45:d7:23:
         20:c4:b5:a2:df:d7:20:6d:df:d3:11:ec:df:45:4b:b0:7f:e3:
         eb:6d:a2:2d:4e:cc:db:5f:21:ed:a3:bd:09:01:ee:ed:15:78:
         44:76:80:3d:8f:ed:33:f8:27:9b:ef:60:41:cd:fb:5f:1e:d6:
         20:d9:fb:8c:46:0d:58:4f:f0:f5:ca:d7:79:78:ff:6f:e0:f2:
         b0:13:63:73:53:15:8a:f8:69:91:85:11:b8:6d:f7:6e:05:52:
         02:1a:eb:3e:18:6f:bd:36:40:a5:8c:e8:8f:6b:06:fe:18:a4:
         a3:21:34:60:d0:50:42:cf:79:33:30:bc:0b:17:28:86:7f:cb:
         4b:4b:a7:9a:f6:04:ec:c4:b9:4a:77:ef:2e:34:1c:53:c6:fa:
         56:3d:7c:15:4f:3b:c9:75:ba:ba:65:fb:5a:cd:44:08:88:54:
         09:73:1e:25:76:2e:ec:a1:7a:30:1e:7c:31:a8:96:6c:19:26:
         55:f8:98:cb:ac:8c:c8:84:72:92:33:ce:6f:27:66:6a:8a:5d:
         79:15:2c:64:36:74:1d:e6:7f:f4:0b:5d:be:fa:6c:f4:3b:d5:
         86:a9:56:ab:73:08:89:dd:40:cd:39:53:5f:e6:16:7b:de:18:
         57:76:54:80:df:18:56:db:03:04:78:a5:21:77:16:72:de:4d:
         eb:81:24:48:ce:fb:19:40
-----BEGIN CERTIFICATE-----
MIIGFDCCA/ygAwIBAgIJALWQPtX+b27/MA0GCSqGSIb3DQEBBQUAMBIxEDAOBgNV
BAMTB3B1bHAtY2EwHhcNMTcwNTA5MTk1MjI1WhcNMjcwNTA3MTk1MjI1WjAVMRMw
EQYDVQQDFAplX3ZhcmlhYmxlMIICIjANBgkqhkiG9w0BAQEFAAOCAg8AMIICCgKC
AgEAlm3kqI6PiRoI670fDL3JD87Ez/98NopwAuVOqBpHVvDYaIwu/tPpXkb3kOZe
ofWAoRZrN7Gcf9xUKJu8+KR9DXsKx4WGup4P9MeJE/SwRbOyUSbBxexnB/3h83uP
pAFgTLEoz55kcVLq/VBRYFuyp4ABIQqQwEF2tdYamoNigeSZ5wOhFLiALf61P4KN
/hw0jwIxoU8s4tRsQs52oFcLA1lBzFI1HyRyPeQ4D7qoZYGD4fBR6eVsx+JbZ2Mq
d90D2yFQcF5iN/E+K+ZZKUyA5B2esRudWms09EeCIw9JHJXgU0jysubDkFWYrxo4
1x/BPZlbWEqJZZUTs4jM+f75VO/QPBzXIMxw1kcZFW+WA6lMmK5Fv8yhs+ZnK5UM
7bPDiWcIsGJjQ/c75Qgs3yEDN3GtLe3EPn9PP8gSUHHkNGDCMUF6EGLusskJbnyO
UXtJU7OCd1UT54HRmgpv/DqmRj0IvLGTWjMap4dSYmEwf7UKsqY5/fQv+uScEH8D
6CljuL6MFhjKIUwrA7N9j/wj1DyJC4zGh7ggU99Pwn1kKwVJ/YHkwojFp9QxKH26
sj8MpLEx/+pwxk82SYrU7FzIVJt4v94UJvnQqd51beMwjbCkEHXhtfnfOtWwsPgT
V2lzaE1A5cQaufOycQsU7djoTnrxAjKcNP3KuZZ4H3qxNCcCAwEAAaOCAWgwggFk
MAkGA1UdEwQCMAAwHwYKKwYBBAGSCAkEAQQRDA9mYWtlLW9yZGVyLW5hbWUwFAYL
KwYBBAGSCAkCDQEEBQwDeXVtMCsGDCsGAQQBkggJAg0BAQQbDBlQdWxwIFByb2R1
Y3Rpb24gRmVkb3JhIDEzMB8GDCsGAQQBkggJAg0BAgQPDA1wdWxwLXByb2QtZjEz
MDYGDCsGAQQBkggJAg0BBgQmDCRyZXBvcy9wdWxwL3B1bHAvZmVkb3JhLTEzLyRi
YXNlYXJjaC8wFAYLKwYBBAGSCAkCDgEEBQwDeXVtMCsGDCsGAQQBkggJAg4BAQQb
DBlQdWxwIFByb2R1Y3Rpb24gRmVkb3JhIDE0MB8GDCsGAQQBkggJAg4BAgQPDA1w
dWxwLXByb2QtZjE0MDYGDCsGAQQBkggJAg4BBgQmDCRyZXBvcy9wdWxwL3B1bHAv
ZmVkb3JhLTE0LyRiYXNlYXJjaC8wDQYJKoZIhvcNAQEFBQADggIBABOSDD4ms8Vu
CivPEDmtrqHKsJ97EXlPVLUmy6mASmsY4D3+W8rN4B8lqYpU6/HAyJl7hz/GV4o3
4CAB3QrEJnEXJ4UScMNvyoQsEuKUiSqZVeNbTA4Yijem5PzmZCrLTgd25Uf1ofyC
JrCjv79XGPgvylputlg14bXoiUQDB3/LX795KI25zifHvJ7SvtWTPGMQEiVBuijb
yL+L6by2iCkGYS7XwGfYM8vcq55s/HPrgZi5WdWPFKZjVwsUOSjs7ujqJ3ztxCIH
IXQqkf+ZBeLmZoSyyHp3rKyR+52AtZVOgHOBepHCculUIjmJJfet7YimlaPOxnep
WUXXIyDEtaLf1yBt39MR7N9FS7B/4+ttoi1OzNtfIe2jvQkB7u0VeER2gD2P7TP4
J5vvYEHN+18e1iDZ+4xGDVhP8PXK13l4/2/g8rATY3NTFYr4aZGFEbht924FUgIa
6z4Yb702QKWM6I9rBv4YpKMhNGDQUELPeTMwvAsXKIZ/y0tLp5r2BOzEuUp37y40
HFPG+lY9fBVPO8l1urpl+1rNRAiIVAlzHiV2LuyhejAefDGolmwZJlX4mMusjMiE
cpIzzm8nZmqKXXkVLGQ2dB3mf/QLXb76bPQ71YapVqtzCIndQM05U1/mFnveGFd2
VIDfGFbbAwR4pSF3FnLeTeuBJEjO+xlA
-----END CERTIFICATE-----
