Certificate:
    Data:
        Version: 3 (0x2)
        Serial Number:
            ad:4b:41:90:c0:2c:e3:3b
    Signature Algorithm: sha256WithRSAEncryption
        Issuer: CN=pulp-ca
        Validity
            Not Before: Jan 25 17:35:40 2017 GMT
            Not After : Jan 23 17:35:40 2027 GMT
        Subject: CN=e_variable
        Subject Public Key Info:
            Public Key Algorithm: rsaEncryption
                Public-Key: (4096 bit)
                Modulus:
                    00:b4:fd:d6:9b:63:9f:da:72:05:9c:a8:88:39:54:
                    cf:8d:84:fb:71:a4:73:b0:f3:81:1d:13:52:41:20:
                    d8:3f:3d:0d:f4:75:cb:5c:20:c2:e4:41:e5:b0:4a:
                    4f:06:dd:1a:c5:cf:a8:a3:2c:1f:ae:67:1a:21:cc:
                    82:c9:56:1c:19:b9:02:1d:3a:4b:ee:b8:92:46:72:
                    0e:70:07:32:26:ab:28:c4:4d:04:20:5d:83:d4:d2:
                    4e:40:54:9f:c2:44:a5:84:e7:82:ca:96:fc:bc:83:
                    e7:92:8f:c6:f4:15:47:47:cf:a3:3a:5c:17:bc:43:
                    17:fd:dc:dc:87:5c:8b:f7:cb:d9:8a:e0:24:94:ff:
                    92:4b:d7:76:33:36:f6:5e:d3:3f:db:c5:37:10:6c:
                    16:f5:c5:eb:0d:5c:1f:18:6f:21:05:c6:4a:34:8b:
                    4f:78:57:52:70:0c:b4:77:f0:9d:13:c3:18:77:03:
                    c1:d0:a6:fb:c7:da:e9:d4:58:ad:29:06:f1:fd:4b:
                    e5:07:13:2c:1e:b9:81:86:86:fb:6d:d6:07:f9:2e:
                    32:85:e3:1f:88:14:41:e9:55:15:a7:af:4f:b3:e2:
                    16:73:36:9a:f1:b1:b6:0d:81:d5:2d:c1:7b:ec:77:
                    36:22:84:2a:3d:03:ae:57:82:80:86:af:11:61:a7:
                    8b:6d:48:2d:98:fa:04:1d:07:06:b4:22:db:ac:a5:
                    c5:32:f6:36:31:be:8c:28:a3:35:1c:b3:39:da:cc:
                    3b:40:a4:b6:c9:5f:d1:b3:10:94:e4:8c:21:fd:84:
                    45:45:bc:1f:6c:43:d4:34:8b:88:4a:99:42:c7:bf:
                    bd:e5:2e:b3:8a:95:7a:60:12:4c:3b:da:70:8f:12:
                    01:b3:bb:02:c0:ec:62:1f:79:ad:23:2d:92:06:18:
                    36:4f:9e:33:f5:84:1f:a5:e5:61:25:49:09:28:a7:
                    1b:56:91:d7:0d:40:af:dd:a1:8e:5e:e0:89:80:6d:
                    5f:db:7c:bf:2c:d8:55:2e:dc:2b:dc:5d:13:c0:dd:
                    c6:91:67:45:0a:d6:04:58:72:fa:c7:b9:09:84:80:
                    e0:7f:15:70:3c:cf:3b:db:ac:7a:9d:60:f1:92:e8:
                    08:4a:61:69:e3:5f:8d:76:87:ca:d3:8c:1a:4b:fd:
                    49:7d:34:19:bc:f5:ee:1c:e0:e4:f3:d6:08:d3:bc:
                    d2:a6:63:ec:2f:96:b4:60:2a:05:90:24:18:5f:2e:
                    16:97:6c:d0:a5:91:d1:dc:4b:d3:0e:c3:eb:55:bf:
                    0d:76:a3:d1:30:ea:06:e2:ec:85:e5:2e:36:2f:16:
                    64:52:3f:df:89:60:67:fb:52:58:15:52:22:f1:3b:
                    34:4b:53
                Exponent: 65537 (0x10001)
        X509v3 extensions:
            X509v3 Basic Constraints: 
                CA:FALSE
            1.3.6.1.4.1.2312.9.2.13.1.1: 
                ..Pulp Production Fedora 13
            1.3.6.1.4.1.2312.9.2.13.1.2: 
                .pulp-prod-f13
            1.3.6.1.4.1.2312.9.2.13.1.6: 
                .$repos/pulp/pulp/fedora-13/$basearch/
            1.3.6.1.4.1.2312.9.2.14.1.1: 
                ..Pulp Production Fedora 14
            1.3.6.1.4.1.2312.9.2.14.1.2: 
                .pulp-prod-f14
            1.3.6.1.4.1.2312.9.2.14.1.6: 
                .$repos/pulp/pulp/fedora-14/$basearch/
    Signature Algorithm: sha256WithRSAEncryption
         5f:9a:bb:a8:02:24:32:dc:72:1a:cb:80:a8:e6:0b:05:e3:70:
         21:3f:0f:55:1a:7e:32:9b:e5:c3:80:6b:40:5c:5f:5b:e6:6c:
         51:75:3c:fd:ef:17:74:05:be:49:2b:9a:0f:3b:3f:10:6d:59:
         bc:3e:95:67:e8:22:05:88:cd:59:85:8b:d5:94:eb:f4:a7:4c:
         71:e8:d7:2d:34:de:c1:58:53:9d:32:d2:49:e0:39:2e:e5:89:
         aa:1a:18:5c:a3:4a:bb:6b:73:b2:9a:98:50:5e:7f:bb:b7:fc:
         33:78:4c:13:00:7a:60:31:d0:7f:53:f7:ef:43:fe:ca:ca:06:
         f3:29:c4:49:14:a2:83:57:bc:ac:29:70:6e:60:a8:d8:e6:82:
         5e:e9:aa:ef:96:31:8a:48:76:7b:bb:c7:e4:63:58:84:5a:6e:
         61:c1:e4:02:34:c0:85:46:aa:98:cd:f8:46:8b:8e:c8:3d:79:
         38:2e:6e:88:50:20:69:d9:8d:5f:5a:ca:61:f5:50:a9:3f:5d:
         4a:e6:71:e7:f2:5c:c9:ea:a0:5c:aa:a2:23:b7:58:a0:7f:c4:
         40:d4:d4:72:8d:42:bb:31:5a:86:49:80:d5:db:84:b9:b7:38:
         0b:44:3b:a4:e4:cc:93:e1:a7:b9:cb:8a:c8:dc:2c:00:de:54:
         7a:11:0e:c6:c2:90:4c:f0:c4:80:c4:25:db:ea:46:92:6b:d6:
         bd:17:a6:a8:fb:42:6c:ae:27:17:77:25:99:b6:9c:3f:74:9e:
         80:06:74:d2:64:ab:37:30:d1:11:7b:0f:cf:e7:29:4f:48:42:
         7f:a3:4c:89:4d:49:94:93:a6:a8:d8:99:67:92:27:13:0f:de:
         ad:72:36:68:6c:62:30:21:e0:3a:84:4f:f1:15:2b:4e:8d:92:
         fa:0e:ec:a9:8f:71:3a:8d:b5:8f:92:07:83:b6:7c:aa:28:09:
         70:a4:80:5a:b8:7d:f1:cf:9d:97:0f:79:1d:b3:63:cf:08:c5:
         6e:99:d6:8f:5b:ea:5c:bd:78:ef:1c:11:af:04:fb:68:83:43:
         d1:cb:59:37:8e:3b:0c:6f:f7:28:89:b1:08:aa:68:d7:f0:26:
         63:13:b3:76:58:48:90:fc:48:df:5c:2b:3a:ef:3f:11:88:1d:
         e3:95:6a:d9:32:53:27:7b:da:84:b9:c3:e3:08:4c:58:90:78:
         01:07:45:c4:87:6f:6d:49:1d:cb:2f:be:8b:d0:48:c0:6f:02:
         42:10:71:15:82:cf:ec:04:27:83:27:ea:51:5f:e2:da:ec:13:
         2e:35:f0:cb:c0:e0:2c:c4:c5:45:df:bd:7d:4d:4d:8f:61:d1:
         5d:62:e2:c8:79:d7:24:36
-----BEGIN CERTIFICATE-----
MIIFxzCCA6+gAwIBAgIJAK1LQZDALOM7MA0GCSqGSIb3DQEBCwUAMBIxEDAOBgNV
BAMMB3B1bHAtY2EwHhcNMTcwMTI1MTczNTQwWhcNMjcwMTIzMTczNTQwWjAVMRMw
EQYDVQQDDAplX3ZhcmlhYmxlMIICIjANBgkqhkiG9w0BAQEFAAOCAg8AMIICCgKC
AgEAtP3Wm2Of2nIFnKiIOVTPjYT7caRzsPOBHRNSQSDYPz0N9HXLXCDC5EHlsEpP
Bt0axc+ooywfrmcaIcyCyVYcGbkCHTpL7riSRnIOcAcyJqsoxE0EIF2D1NJOQFSf
wkSlhOeCypb8vIPnko/G9BVHR8+jOlwXvEMX/dzch1yL98vZiuAklP+SS9d2Mzb2
XtM/28U3EGwW9cXrDVwfGG8hBcZKNItPeFdScAy0d/CdE8MYdwPB0Kb7x9rp1Fit
KQbx/UvlBxMsHrmBhob7bdYH+S4yheMfiBRB6VUVp69Ps+IWczaa8bG2DYHVLcF7
7Hc2IoQqPQOuV4KAhq8RYaeLbUgtmPoEHQcGtCLbrKXFMvY2Mb6MKKM1HLM52sw7
QKS2yV/RsxCU5Iwh/YRFRbwfbEPUNIuISplCx7+95S6zipV6YBJMO9pwjxIBs7sC
wOxiH3mtIy2SBhg2T54z9YQfpeVhJUkJKKcbVpHXDUCv3aGOXuCJgG1f23y/LNhV
Ltwr3F0TwN3GkWdFCtYEWHL6x7kJhIDgfxVwPM8726x6nWDxkugISmFp41+NdofK
04waS/1JfTQZvPXuHODk89YI07zSpmPsL5a0YCoFkCQYXy4Wl2zQpZHR3EvTDsPr
Vb8NdqPRMOoG4uyF5S42LxZkUj/fiWBn+1JYFVIi8Ts0S1MCAwEAAaOCARswggEX
MAkGA1UdEwQCMAAwKwYMKwYBBAGSCAkCDQEBBBsMGVB1bHAgUHJvZHVjdGlvbiBG
ZWRvcmEgMTMwHwYMKwYBBAGSCAkCDQECBA8MDXB1bHAtcHJvZC1mMTMwNgYMKwYB
BAGSCAkCDQEGBCYMJHJlcG9zL3B1bHAvcHVscC9mZWRvcmEtMTMvJGJhc2VhcmNo
LzArBgwrBgEEAZIICQIOAQEEGwwZUHVscCBQcm9kdWN0aW9uIEZlZG9yYSAxNDAf
BgwrBgEEAZIICQIOAQIEDwwNcHVscC1wcm9kLWYxNDA2BgwrBgEEAZIICQIOAQYE
JgwkcmVwb3MvcHVscC9wdWxwL2ZlZG9yYS0xNC8kYmFzZWFyY2gvMA0GCSqGSIb3
DQEBCwUAA4ICAQBfmruoAiQy3HIay4Co5gsF43AhPw9VGn4ym+XDgGtAXF9b5mxR
dTz97xd0Bb5JK5oPOz8QbVm8PpVn6CIFiM1ZhYvVlOv0p0xx6NctNN7BWFOdMtJJ
4Dku5YmqGhhco0q7a3OymphQXn+7t/wzeEwTAHpgMdB/U/fvQ/7KygbzKcRJFKKD
V7ysKXBuYKjY5oJe6arvljGKSHZ7u8fkY1iEWm5hweQCNMCFRqqYzfhGi47IPXk4
Lm6IUCBp2Y1fWsph9VCpP11K5nHn8lzJ6qBcqqIjt1igf8RA1NRyjUK7MVqGSYDV
24S5tzgLRDuk5MyT4ae5y4rI3CwA3lR6EQ7GwpBM8MSAxCXb6kaSa9a9F6ao+0Js
ricXdyWZtpw/dJ6ABnTSZKs3MNERew/P5ylPSEJ/o0yJTUmUk6ao2JlnkicTD96t
cjZobGIwIeA6hE/xFStOjZL6Duypj3E6jbWPkgeDtnyqKAlwpIBauH3xz52XD3kd
s2PPCMVumdaPW+pcvXjvHBGvBPtog0PRy1k3jjsMb/coibEIqmjX8CZjE7N2WEiQ
/EjfXCs67z8RiB3jlWrZMlMne9qEucPjCExYkHgBB0XEh29tSR3LL76L0EjAbwJC
EHEVgs/sBCeDJ+pRX+La7BMuNfDLwOAsxMVF3719TU2PYdFdYuLIedckNg==
-----END CERTIFICATE-----
