Certificate:
    Data:
        Version: 3 (0x2)
        Serial Number: 16604164649687822150 (0xe66dd7c6b8bdaf46)
    Signature Algorithm: sha1WithRSAEncryption
        Issuer: CN=pulp-ca
        Validity
            Not Before: May  9 19:52:26 2017 GMT
            Not After : May  7 19:52:26 2027 GMT
        Subject: CN=e_wildcard
        Subject Public Key Info:
            Public Key Algorithm: rsaEncryption
                Public-Key: (4096 bit)
                Modulus:
                    00:f4:6d:de:a2:d0:ed:ab:fa:fa:a6:2e:a1:8f:0d:
                    16:78:4a:33:d8:c8:6e:4b:6a:7b:e8:43:64:f4:0e:
                    ef:eb:aa:e6:4f:22:97:7e:55:f4:29:ec:7c:61:dc:
                    e4:a3:bc:cb:dc:1e:96:05:38:59:c3:3f:92:a0:98:
                    7d:bd:98:f0:4d:30:5e:32:eb:7a:43:57:1b:d3:27:
                    28:ef:5b:90:08:31:5a:e3:5a:ed:19:5c:37:e7:0b:
                    ba:dd:17:1b:24:bb:2c:72:b4:85:19:b7:90:88:ee:
                    d7:ea:3d:cf:3e:9b:4e:25:a6:9a:31:45:b6:9c:92:
                    89:73:a9:3a:72:7a:75:08:7a:23:a9:97:30:94:f5:
                    bb:25:e4:09:7e:b4:cd:ef:de:4e:48:6a:c7:0e:0f:
                    82:bb:94:58:10:30:0b:53:61:f5:61:ce:f6:ef:e2:
                    5e:2f:7b:d9:3b:2d:f7:bd:80:ac:38:0e:b5:81:a0:
                    17:02:e7:3b:ff:b9:d7:50:70:c8:1d:7b:39:96:80:
                    ba:a2:a1:b5:d3:af:eb:bd:ea:99:5a:50:1b:60:70:
                    1d:c9:bf:7a:ae:a4:39:42:a7:4b:d3:22:45:75:63:
                    a6:80:87:0a:12:a2:1d:1d:96:8f:26:b9:37:14:0b:
                    e4:1e:0a:b7:50:e9:2b:db:88:e0:ae:67:69:0e:e4:
                    8b:8e:96:d2:17:e9:e6:6c:78:ca:0b:06:10:b9:84:
                    8b:89:8e:7e:87:e2:c9:a9:14:d3:6d:7f:a3:bb:e2:
                    d9:ec:8f:b4:1e:cd:d3:62:55:08:76:2a:ce:51:39:
                    01:25:5b:b6:5c:f3:24:aa:e3:de:c0:bb:99:00:83:
                    50:38:55:2d:9e:ba:8f:48:54:ec:a6:2e:32:1b:d0:
                    ee:cc:d6:96:eb:cd:58:4e:8c:52:54:9f:f1:94:05:
                    98:04:c2:ba:36:91:7f:11:12:57:c8:95:28:02:ef:
                    4e:81:4d:b4:63:e9:d5:db:d4:2a:61:86:05:40:1c:
                    16:84:d6:82:68:f3:35:3f:54:04:3e:b2:67:84:0d:
                    8d:2c:02:40:05:6c:c6:97:ef:d9:44:31:89:7b:c1:
                    b8:dd:59:ab:63:e4:9b:78:94:0b:1d:2b:31:36:eb:
                    78:88:07:b3:3d:1b:0e:a2:ee:eb:cd:17:ea:63:21:
                    92:87:fa:e4:2a:a8:67:cf:1b:8f:ef:e0:99:d5:9e:
                    21:6e:21:97:62:1f:bf:0f:c0:18:09:44:4d:d7:70:
                    d8:1a:0e:d6:6a:34:4a:0f:ab:ff:7c:68:e8:ab:7e:
                    8c:de:e9:bb:f4:8a:ae:33:27:58:47:67:4d:30:30:
                    4f:fd:38:0c:a6:8e:41:5f:ee:07:ff:29:c3:a4:2f:
                    d6:dd:61
                Exponent: 65537 (0x10001)
        X509v3 extensions:
            X509v3 Basic Constraints: 
                CA:FALSE
            1.3.6.1.4.1.2312.9.4.1: 
                ..fake-order-name
            1.3.6.1.4.1.2312.9.2.0.1: 
                ..yum
            1.3.6.1.4.1.2312.9.2.0.1.1: 
                ..Pulp Production MyRepo
            1.3.6.1.4.1.2312.9.2.0.1.2: 
                ..pulp-prod-myrepo
            1.3.6.1.4.1.2312.9.2.0.1.6: 
                .(repos/pulp/pulp/$releasever/$basearch/os
    Signature Algorithm: sha1WithRSAEncryption
         b6:10:7c:d6:69:7b:ff:b0:74:52:3e:67:d7:4d:54:69:72:fc:
         71:66:9e:54:ec:7f:89:4f:34:79:42:f5:d3:1b:b1:ae:6e:a4:
         a6:f3:b9:81:4a:a2:45:73:22:69:e2:54:7c:94:02:81:f4:3d:
         b5:28:6a:ea:33:22:4e:fc:ab:46:92:8e:ff:64:8f:7e:7f:04:
         d8:b5:4e:20:02:22:c4:b7:01:21:aa:65:08:a9:59:0a:52:8a:
         01:75:24:0d:b7:ee:56:3d:de:45:94:42:d1:87:88:ba:7b:05:
         9e:30:0b:a8:7c:d7:40:37:31:e5:ee:19:30:f0:06:0c:14:16:
         d7:32:ba:02:00:f0:df:73:94:d1:3b:50:1d:3e:25:5d:b8:7c:
         bf:02:8b:86:76:24:c0:f9:ac:88:7e:cd:03:eb:f3:6b:34:9d:
         f1:f0:23:7a:53:a1:76:13:06:ac:8b:d5:37:2d:37:2f:b3:ed:
         9a:af:0c:b7:54:30:1a:b2:2a:d7:96:e2:2f:60:0a:97:b7:0d:
         cc:02:be:b8:49:76:d8:44:83:33:f0:94:3b:9c:e7:92:df:f0:
         13:38:08:1f:ed:29:b0:0f:89:e4:16:25:3e:3c:75:72:ab:14:
         ca:b4:a9:48:68:73:3d:09:3b:0c:32:6a:88:d9:1d:76:4c:e8:
         b9:ec:cf:79:d6:37:ef:86:28:29:de:45:27:9b:e2:81:51:fe:
         e3:b5:ca:01:41:f9:d9:f1:9e:10:2b:48:9c:c5:d7:17:74:d5:
         0f:1d:87:75:83:1e:76:39:30:e9:f5:2d:d4:bd:44:e4:7a:d6:
         89:e2:7c:1a:6a:8f:fb:33:2f:c1:38:fd:6a:f2:12:1c:2c:87:
         f5:bd:d8:6a:2f:07:77:42:56:60:c5:45:de:b9:67:d2:6d:29:
         05:46:6f:2a:7b:d8:8a:28:e1:fa:f6:44:8a:d2:ca:71:ac:bd:
         db:ea:ce:e1:92:f8:e2:a4:18:3b:0d:f3:a9:f9:25:d2:94:db:
         66:8a:a1:c5:90:f4:e4:48:d7:f1:b0:c7:04:4c:c0:e2:ec:8e:
         bb:95:9c:0c:0f:e7:03:6c:cb:4c:0a:62:bf:f3:41:db:c8:e0:
         2f:a6:29:50:22:c1:df:af:be:0b:82:e6:76:b3:46:b4:3e:e5:
         f6:20:65:b0:6a:e0:24:8e:86:ba:fa:a5:9c:e5:3f:13:80:b0:
         88:cf:66:20:5f:c2:ed:e8:0a:c4:a8:e7:7b:4c:2a:64:a5:f7:
         c9:02:c6:06:61:46:95:29:d8:2f:32:14:eb:fc:f8:a5:87:c1:
         52:27:14:9f:e9:be:85:41:c3:6e:15:2c:cd:59:3f:08:95:68:
         e7:65:cc:8e:80:2a:41:73
-----BEGIN CERTIFICATE-----
MIIFejCCA2KgAwIBAgIJAOZt18a4va9GMA0GCSqGSIb3DQEBBQUAMBIxEDAOBgNV
BAMTB3B1bHAtY2EwHhcNMTcwNTA5MTk1MjI2WhcNMjcwNTA3MTk1MjI2WjAVMRMw
EQYDVQQDFAplX3dpbGRjYXJkMIICIjANBgkqhkiG9w0BAQEFAAOCAg8AMIICCgKC
AgEA9G3eotDtq/r6pi6hjw0WeEoz2MhuS2p76ENk9A7v66rmTyKXflX0Kex8Ydzk
o7zL3B6WBThZwz+SoJh9vZjwTTBeMut6Q1cb0yco71uQCDFa41rtGVw35wu63Rcb
JLsscrSFGbeQiO7X6j3PPptOJaaaMUW2nJKJc6k6cnp1CHojqZcwlPW7JeQJfrTN
795OSGrHDg+Cu5RYEDALU2H1Yc727+JeL3vZOy33vYCsOA61gaAXAuc7/7nXUHDI
HXs5loC6oqG106/rveqZWlAbYHAdyb96rqQ5QqdL0yJFdWOmgIcKEqIdHZaPJrk3
FAvkHgq3UOkr24jgrmdpDuSLjpbSF+nmbHjKCwYQuYSLiY5+h+LJqRTTbX+ju+LZ
7I+0Hs3TYlUIdirOUTkBJVu2XPMkquPewLuZAINQOFUtnrqPSFTspi4yG9DuzNaW
681YToxSVJ/xlAWYBMK6NpF/ERJXyJUoAu9OgU20Y+nV29QqYYYFQBwWhNaCaPM1
P1QEPrJnhA2NLAJABWzGl+/ZRDGJe8G43VmrY+SbeJQLHSsxNut4iAezPRsOou7r
zRfqYyGSh/rkKqhnzxuP7+CZ1Z4hbiGXYh+/D8AYCURN13DYGg7WajRKD6v/fGjo
q36M3um79IquMydYR2dNMDBP/TgMpo5BX+4H/ynDpC/W3WECAwEAAaOBzzCBzDAJ
BgNVHRMEAjAAMB8GCisGAQQBkggJBAEEEQwPZmFrZS1vcmRlci1uYW1lMBQGCysG
AQQBkggJAgABBAUMA3l1bTAoBgwrBgEEAZIICQIAAQEEGAwWUHVscCBQcm9kdWN0
aW9uIE15UmVwbzAiBgwrBgEEAZIICQIAAQIEEgwQcHVscC1wcm9kLW15cmVwbzA6
BgwrBgEEAZIICQIAAQYEKgwocmVwb3MvcHVscC9wdWxwLyRyZWxlYXNldmVyLyRi
YXNlYXJjaC9vczANBgkqhkiG9w0BAQUFAAOCAgEAthB81ml7/7B0Uj5n101UaXL8
cWaeVOx/iU80eUL10xuxrm6kpvO5gUqiRXMiaeJUfJQCgfQ9tShq6jMiTvyrRpKO
/2SPfn8E2LVOIAIixLcBIaplCKlZClKKAXUkDbfuVj3eRZRC0YeIunsFnjALqHzX
QDcx5e4ZMPAGDBQW1zK6AgDw33OU0TtQHT4lXbh8vwKLhnYkwPmsiH7NA+vzazSd
8fAjelOhdhMGrIvVNy03L7Ptmq8Mt1QwGrIq15biL2AKl7cNzAK+uEl22ESDM/CU
O5znkt/wEzgIH+0psA+J5BYlPjx1cqsUyrSpSGhzPQk7DDJqiNkddkzouezPedY3
74YoKd5FJ5vigVH+47XKAUH52fGeECtInMXXF3TVDx2HdYMedjkw6fUt1L1E5HrW
ieJ8GmqP+zMvwTj9avISHCyH9b3Yai8Hd0JWYMVF3rln0m0pBUZvKnvYiijh+vZE
itLKcay92+rO4ZL44qQYOw3zqfkl0pTbZoqhxZD05EjX8bDHBEzA4uyOu5WcDA/n
A2zLTApiv/NB28jgL6YpUCLB36++C4LmdrNGtD7l9iBlsGrgJI6GuvqlnOU/E4Cw
iM9mIF/C7egKxKjne0wqZKX3yQLGBmFGlSnYLzIU6/z4pYfBUicUn+m+hUHDbhUs
zVk/CJVo52XMjoAqQXM=
-----END CERTIFICATE-----
