Certificate:
    Data:
        Version: 3 (0x2)
        Serial Number:
            91:2e:78:8e:da:d8:b7:9e
    Signature Algorithm: sha256WithRSAEncryption
        Issuer: CN = pulp-ca
        Validity
            Not Before: Jan 25 20:38:11 2018 GMT
            Not After : Jan 23 20:38:11 2028 GMT
        Subject: CN = e_wildcard
        Subject Public Key Info:
            Public Key Algorithm: rsaEncryption
                Public-Key: (4096 bit)
                Modulus:
                    00:a5:0b:ac:b0:15:e5:5d:10:f4:53:09:7a:b3:c4:
                    e5:60:7f:93:a2:22:f8:c2:3a:b1:99:db:13:0c:98:
                    d6:7f:28:c5:d0:2d:84:2a:1a:7c:7e:9d:5b:6d:bb:
                    95:a2:06:2d:57:5b:59:fd:4c:16:b0:42:a7:23:1a:
                    d4:d8:a9:33:14:ce:6b:31:26:0c:13:c0:a6:ae:b7:
                    75:ed:2f:8d:a5:db:56:a0:25:9d:60:ed:cf:7d:f4:
                    94:ed:f9:a5:38:b0:d6:ad:6f:6d:ed:cb:b7:16:e7:
                    9f:2e:71:49:c3:27:85:62:fa:59:07:69:38:1b:94:
                    01:0f:8d:1f:3e:ce:85:3c:f4:ec:ff:13:d9:cd:a4:
                    fb:72:fe:04:c4:02:45:0f:32:22:f9:9a:41:1b:cd:
                    ac:55:7c:10:88:0a:c4:4f:4e:53:c2:ce:44:dc:82:
                    4e:96:c1:37:b7:41:7a:4f:7b:0e:7e:69:bb:17:0b:
                    85:11:82:fc:bd:9b:4b:ba:9e:07:85:fa:cc:8c:39:
                    f2:69:21:75:91:a6:6f:12:a4:aa:69:07:05:41:7d:
                    e3:ec:6e:20:cb:da:f2:87:53:7f:38:dc:14:af:a3:
                    03:61:c4:f8:8b:de:cc:b3:0f:47:32:ed:9d:3e:c2:
                    d7:81:a3:09:62:f0:9b:35:2c:36:1a:8c:a4:5f:4b:
                    c9:2e:72:c3:03:d7:99:19:ab:ba:3c:eb:81:a2:dc:
                    3b:d4:d4:94:f9:7b:4b:2a:db:cf:dc:6b:23:6b:4a:
                    5b:d5:fc:8e:97:8f:22:cc:69:27:7c:eb:3f:7b:54:
                    16:f9:55:95:24:21:2b:d6:8e:f2:c5:e0:b2:f6:92:
                    3a:f8:9b:b2:ad:db:02:12:0f:5e:37:db:3a:7d:fe:
                    23:83:c7:d3:61:a7:30:5c:fb:c2:53:0d:79:bc:72:
                    34:f2:bf:b1:f1:bc:86:2c:66:78:33:2c:a7:8d:b4:
                    07:09:08:5c:87:87:e7:c9:fd:3d:70:0e:43:38:d4:
                    c3:1b:56:9c:cc:5c:22:e3:57:ed:21:c3:7f:7a:5a:
                    c8:a7:3b:02:7c:2a:e7:77:40:27:83:f7:ac:ac:2b:
                    5d:03:7a:82:64:31:b8:9b:53:cd:61:a8:e9:80:8f:
                    ae:2c:d7:8c:fe:08:b5:63:5a:98:16:a2:8e:b3:63:
                    71:16:86:36:4d:f8:16:77:41:ac:f1:b7:03:8f:11:
                    8e:66:77:0d:86:82:72:31:de:a6:e8:c7:9e:b1:7d:
                    95:b0:83:9a:79:03:71:07:ce:e1:76:d8:b6:21:3b:
                    1f:e4:29:ee:8d:5c:85:d4:a0:cc:ca:cd:9a:15:9f:
                    da:dc:59:b3:9d:db:2c:f0:59:e4:21:aa:9d:31:b4:
                    08:cf:79
                Exponent: 65537 (0x10001)
        X509v3 extensions:
            X509v3 Basic Constraints: 
                CA:FALSE
            1.3.6.1.4.1.2312.9.4.1: 
                ..fake-order-name
            1.3.6.1.4.1.2312.9.2.0.1: 
                ..yum
            1.3.6.1.4.1.2312.9.2.0.1.1: 
                ..Pulp Production MyRepo
            1.3.6.1.4.1.2312.9.2.0.1.2: 
                ..pulp-prod-myrepo
            1.3.6.1.4.1.2312.9.2.0.1.6: 
                .(repos/pulp/pulp/$releasever/$basearch/os
    Signature Algorithm: sha256WithRSAEncryption
         77:e0:d9:24:b2:bd:aa:86:12:e7:12:f4:71:e7:7a:7e:57:a1:
         48:7a:0b:20:59:1b:df:d1:05:79:86:e7:11:1a:25:06:bd:bb:
         9b:53:f1:53:8e:d9:2d:e3:f3:3d:80:94:27:cf:c1:3c:83:d4:
         e7:a6:4b:51:71:8b:b4:75:5e:df:36:94:be:3c:92:3c:55:2b:
         78:30:9e:f7:a9:02:60:8f:47:61:79:05:e1:17:f6:ee:39:d3:
         b3:32:fe:02:b3:b8:f5:cb:4c:a8:a7:e6:ea:1c:f1:da:47:9e:
         44:ed:c1:e2:5b:91:85:fd:44:b3:3f:ec:62:d3:f9:0c:64:72:
         0c:7d:b2:2b:8b:e4:5a:f0:9b:61:a3:3e:e3:0d:13:ab:87:5b:
         59:49:8a:18:4c:a2:31:48:63:b4:9c:8b:44:91:4c:7a:75:b4:
         ee:9a:eb:76:89:db:f1:fa:ef:ee:6c:e5:30:ed:06:27:41:1c:
         7d:84:2e:ad:cd:f4:71:42:81:8e:64:61:ed:7f:3a:b1:05:07:
         49:f8:a4:17:a3:28:0a:ca:a0:7a:c0:94:fb:66:1e:1f:c3:4e:
         f1:2b:ac:9c:e0:f7:c7:7e:19:11:3d:dc:54:1c:74:bd:e5:f1:
         17:e8:3f:4b:69:2b:60:79:e1:85:08:8e:dc:17:75:d8:4a:32:
         ae:2d:a7:15:cc:38:f3:54:d5:44:b5:93:6d:9a:39:af:96:38:
         e0:2e:e1:93:0c:9f:cd:37:80:b7:bb:29:f8:ac:ce:e4:57:05:
         d2:3d:d4:5f:11:32:09:e1:a7:c6:c8:a4:08:fd:33:4e:f5:ce:
         8f:73:b4:20:11:c9:20:e3:d0:d4:91:79:2b:65:ee:77:27:d4:
         74:9b:43:71:77:aa:d5:cb:dc:8f:b3:27:d4:5d:b1:5d:f2:66:
         7e:85:3e:1a:6e:e0:34:1a:93:a1:e9:04:27:f5:2b:b7:ba:cb:
         2d:3b:bb:44:f5:38:71:34:46:81:b3:ab:4c:c3:f4:5a:80:12:
         0a:79:9a:1b:a1:af:1b:03:26:72:b5:c3:00:9d:e5:ca:41:3b:
         3a:78:6b:b5:b5:f1:74:00:4f:bb:4b:4f:b6:82:d9:c3:31:ad:
         b6:f8:dd:9b:9d:50:f9:c3:5d:b0:eb:f1:87:bd:69:e6:5d:60:
         a3:bc:f6:3d:66:fe:a8:ca:07:5f:ad:eb:57:b5:31:16:a5:da:
         f2:a8:df:97:8a:6b:33:f0:53:e9:4e:f0:7b:67:a6:c6:44:10:
         6b:f8:2c:c7:5e:00:7b:b7:5c:e6:e8:7f:81:dd:06:9b:9f:eb:
         05:4b:37:f5:b1:0e:74:1e:95:e3:af:05:b8:3c:83:45:08:b8:
         d6:f8:37:8f:71:45:af:d4
-----BEGIN CERTIFICATE-----
MIIFejCCA2KgAwIBAgIJAJEueI7a2LeeMA0GCSqGSIb3DQEBCwUAMBIxEDAOBgNV
BAMMB3B1bHAtY2EwHhcNMTgwMTI1MjAzODExWhcNMjgwMTIzMjAzODExWjAVMRMw
EQYDVQQDDAplX3dpbGRjYXJkMIICIjANBgkqhkiG9w0BAQEFAAOCAg8AMIICCgKC
AgEApQussBXlXRD0Uwl6s8TlYH+ToiL4wjqxmdsTDJjWfyjF0C2EKhp8fp1bbbuV
ogYtV1tZ/UwWsEKnIxrU2KkzFM5rMSYME8Cmrrd17S+NpdtWoCWdYO3PffSU7fml
OLDWrW9t7cu3FuefLnFJwyeFYvpZB2k4G5QBD40fPs6FPPTs/xPZzaT7cv4ExAJF
DzIi+ZpBG82sVXwQiArET05Tws5E3IJOlsE3t0F6T3sOfmm7FwuFEYL8vZtLup4H
hfrMjDnyaSF1kaZvEqSqaQcFQX3j7G4gy9ryh1N/ONwUr6MDYcT4i97Msw9HMu2d
PsLXgaMJYvCbNSw2GoykX0vJLnLDA9eZGau6POuBotw71NSU+XtLKtvP3Gsja0pb
1fyOl48izGknfOs/e1QW+VWVJCEr1o7yxeCy9pI6+JuyrdsCEg9eN9s6ff4jg8fT
YacwXPvCUw15vHI08r+x8byGLGZ4MyynjbQHCQhch4fnyf09cA5DONTDG1aczFwi
41ftIcN/elrIpzsCfCrnd0Ang/esrCtdA3qCZDG4m1PNYajpgI+uLNeM/gi1Y1qY
FqKOs2NxFoY2TfgWd0Gs8bcDjxGOZncNhoJyMd6m6MeesX2VsIOaeQNxB87hdti2
ITsf5CnujVyF1KDMys2aFZ/a3Fmzndss8FnkIaqdMbQIz3kCAwEAAaOBzzCBzDAJ
BgNVHRMEAjAAMB8GCisGAQQBkggJBAEEEQwPZmFrZS1vcmRlci1uYW1lMBQGCysG
AQQBkggJAgABBAUMA3l1bTAoBgwrBgEEAZIICQIAAQEEGAwWUHVscCBQcm9kdWN0
aW9uIE15UmVwbzAiBgwrBgEEAZIICQIAAQIEEgwQcHVscC1wcm9kLW15cmVwbzA6
BgwrBgEEAZIICQIAAQYEKgwocmVwb3MvcHVscC9wdWxwLyRyZWxlYXNldmVyLyRi
YXNlYXJjaC9vczANBgkqhkiG9w0BAQsFAAOCAgEAd+DZJLK9qoYS5xL0ced6fleh
SHoLIFkb39EFeYbnERolBr27m1PxU47ZLePzPYCUJ8/BPIPU56ZLUXGLtHVe3zaU
vjySPFUreDCe96kCYI9HYXkF4Rf27jnTszL+ArO49ctMqKfm6hzx2keeRO3B4luR
hf1Esz/sYtP5DGRyDH2yK4vkWvCbYaM+4w0Tq4dbWUmKGEyiMUhjtJyLRJFMenW0
7prrdonb8frv7mzlMO0GJ0EcfYQurc30cUKBjmRh7X86sQUHSfikF6MoCsqgesCU
+2YeH8NO8SusnOD3x34ZET3cVBx0veXxF+g/S2krYHnhhQiO3Bd12Eoyri2nFcw4
81TVRLWTbZo5r5Y44C7hkwyfzTeAt7sp+KzO5FcF0j3UXxEyCeGnxsikCP0zTvXO
j3O0IBHJIOPQ1JF5K2XudyfUdJtDcXeq1cvcj7Mn1F2xXfJmfoU+Gm7gNBqToekE
J/Urt7rLLTu7RPU4cTRGgbOrTMP0WoASCnmaG6GvGwMmcrXDAJ3lykE7OnhrtbXx
dABPu0tPtoLZwzGttvjdm51Q+cNdsOvxh71p5l1go7z2PWb+qMoHX63rV7UxFqXa
8qjfl4prM/BT6U7we2emxkQQa/gsx14Ae7dc5uh/gd0Gm5/rBUs39bEOdB6V468F
uDyDRQi41vg3j3FFr9Q=
-----END CERTIFICATE-----
