Certificate:
    Data:
        Version: 3 (0x2)
        Serial Number:
            95:17:dc:4f:52:9c:2a:66
    Signature Algorithm: sha256WithRSAEncryption
        Issuer: CN=pulp-ca
        Validity
            Not Before: Jan 25 17:35:40 2017 GMT
            Not After : Jan 23 17:35:40 2027 GMT
        Subject: CN=e_wildcard
        Subject Public Key Info:
            Public Key Algorithm: rsaEncryption
                Public-Key: (4096 bit)
                Modulus:
                    00:c0:f4:ef:51:a3:5c:1f:71:42:a9:59:cd:fa:1a:
                    5e:cc:44:66:63:3d:52:f5:d2:54:56:b2:ed:67:d2:
                    56:7e:fc:df:c8:41:dc:59:1e:67:17:1e:16:a4:1d:
                    e8:ed:3e:1b:c0:5c:df:42:2a:41:db:d5:1c:04:5b:
                    17:51:ba:28:d5:56:b8:6e:92:7d:28:a4:cd:0a:9b:
                    b3:e8:ab:8c:ae:12:d0:5e:f7:b6:f7:58:d1:57:6c:
                    24:4c:a5:c9:28:ed:cf:04:7e:68:0b:fe:25:64:4c:
                    3f:06:34:02:37:f9:35:ff:74:72:49:16:58:0a:0c:
                    69:08:ac:da:e7:80:4f:e0:d3:dc:e4:08:3a:5e:50:
                    0d:d1:2c:40:b6:ed:0f:ad:fb:a6:a5:5a:b6:25:35:
                    d8:7d:8d:6f:b6:e5:51:21:eb:7f:fd:a5:9f:d6:a8:
                    9f:79:e6:a5:46:cf:59:52:10:f0:fd:b5:91:ec:10:
                    34:0c:e7:ba:7b:d0:93:ae:17:6d:92:21:af:c5:6b:
                    3a:ba:5d:e6:6a:b5:22:85:45:ab:cf:b7:49:95:fa:
                    a1:fa:c9:9a:a6:79:70:49:78:07:ef:1b:47:9d:ed:
                    36:0d:35:df:2c:48:e9:fa:18:9c:bd:cc:d6:02:28:
                    4a:c7:3f:89:ba:54:8d:b3:7f:18:0d:63:2b:ff:7f:
                    95:1c:58:0c:5f:fb:13:6f:64:27:6c:89:8f:2f:17:
                    5a:8e:f4:25:f4:ee:b3:0f:f9:49:cc:15:18:eb:98:
                    66:f3:f2:e7:9f:79:5e:0e:11:1a:3e:96:fb:02:60:
                    70:5a:39:46:30:c3:46:91:eb:91:a9:2a:69:8d:6a:
                    aa:d2:df:15:fa:8c:2f:fe:e6:1f:3f:91:74:86:0f:
                    4d:6a:1d:68:92:4d:c3:02:bc:a3:11:56:d9:d9:ca:
                    f1:4d:27:3d:82:69:c8:7c:fe:eb:ce:6a:70:87:f8:
                    ac:ba:08:67:ac:cd:f3:f4:28:58:12:4d:e2:8d:34:
                    c0:b9:00:7b:ab:a1:33:8d:07:39:db:0a:f5:6e:f5:
                    f2:a5:15:c2:47:e3:87:c2:47:7d:eb:36:29:69:cf:
                    9c:19:7d:f3:9d:9e:a2:ce:6c:28:ed:4a:21:13:e8:
                    fe:05:69:16:59:1a:67:51:6b:e9:f6:2a:bd:56:22:
                    fb:0d:f4:cd:21:14:bf:cb:ab:c1:81:ef:1b:5e:b3:
                    c6:10:a8:6c:49:20:bf:48:38:4c:01:2a:eb:af:45:
                    0e:cb:6b:af:12:65:47:6b:17:4d:8a:53:10:11:28:
                    60:e1:80:a5:5a:bb:89:09:03:0b:a1:6d:06:b7:38:
                    73:c0:bc:c9:3b:50:59:e6:f9:26:04:61:ee:2b:31:
                    25:d3:7d
                Exponent: 65537 (0x10001)
        X509v3 extensions:
            X509v3 Basic Constraints: 
                CA:FALSE
            1.3.6.1.4.1.2312.9.2.0.1.1: 
                ..Pulp Production MyRepo
            1.3.6.1.4.1.2312.9.2.0.1.2: 
                ..pulp-prod-myrepo
            1.3.6.1.4.1.2312.9.2.0.1.6: 
                .(repos/pulp/pulp/$releasever/$basearch/os
    Signature Algorithm: sha256WithRSAEncryption
         87:4e:4c:82:80:8f:9e:86:ea:5d:24:1b:4c:d8:4c:44:5a:26:
         17:51:fb:ca:d4:4a:bf:9c:2c:e8:f0:1d:43:bb:d0:8f:1b:fc:
         6f:db:21:ef:74:72:36:d5:c3:07:5a:5c:d1:c7:49:0c:69:6d:
         85:60:0d:d6:10:75:4a:1e:17:86:5d:65:3e:c1:6c:60:ae:93:
         40:78:be:35:6f:e8:56:32:66:36:d1:8a:0e:53:f0:97:01:7b:
         39:08:8f:3e:25:18:77:10:56:51:23:a2:25:31:f4:97:12:99:
         85:50:7a:2b:77:5d:2b:53:5e:f1:33:fe:d8:79:63:6f:ae:ef:
         99:d5:17:17:9f:5f:17:00:d9:d4:06:be:b1:46:06:ce:4d:bd:
         49:3e:34:c1:34:aa:8f:bd:a2:e1:92:a0:00:91:fa:02:1d:97:
         d3:1e:24:e8:2e:6b:05:c7:db:e0:e6:f8:59:34:8c:3b:dc:b7:
         7f:67:cc:d3:dd:0e:4e:2e:53:5d:c1:63:30:16:0e:23:55:3b:
         22:eb:41:1e:af:72:f9:8f:84:48:50:6b:fb:87:59:7c:70:e6:
         59:33:ca:65:1a:2b:56:bf:a2:47:49:4e:42:a1:64:a5:d0:3c:
         9c:1e:81:85:b2:f3:26:90:87:28:b4:b2:8e:48:4a:ae:88:df:
         b4:72:69:03:b8:ed:40:3a:3b:e7:a1:fe:d3:b5:8d:65:af:39:
         8b:09:f7:41:44:38:3e:5f:54:19:62:89:76:51:d9:1a:6b:c6:
         83:86:0e:56:36:45:5a:57:7e:d6:93:8f:d7:95:38:6d:c1:43:
         86:4f:d5:12:f0:0a:a9:37:4e:a9:06:8e:7f:91:0b:ed:f8:79:
         6b:37:8d:9d:c8:d7:4f:f9:95:fe:d7:b5:6c:60:55:d3:3a:ad:
         28:dd:a8:01:cf:9e:7e:7b:6c:69:94:1e:11:f2:55:bc:e8:8d:
         e3:db:78:2c:97:d9:39:b5:fd:ef:46:da:43:82:1c:82:2f:55:
         52:75:0a:d3:ab:6b:19:56:92:a1:6b:4c:91:35:2e:e2:4f:ec:
         eb:89:37:41:13:25:a7:1d:a3:fc:21:b6:8e:ca:83:01:19:18:
         c4:33:fb:d9:f5:3c:8f:1b:13:f3:b2:68:58:5e:28:91:ae:2d:
         54:c2:17:d5:5a:76:ef:71:63:9f:84:73:9d:75:b2:16:82:e7:
         10:34:57:9b:99:96:4b:28:fe:8d:8e:31:07:5c:de:c6:d7:e0:
         aa:21:21:4d:f0:74:35:cc:42:74:36:2d:46:80:e9:c2:47:e4:
         1a:cb:dd:cd:17:82:52:f3:47:1c:a9:a2:1b:a3:fd:8b:5d:fb:
         57:29:e4:3d:36:68:a3:55
-----BEGIN CERTIFICATE-----
MIIFQzCCAyugAwIBAgIJAJUX3E9SnCpmMA0GCSqGSIb3DQEBCwUAMBIxEDAOBgNV
BAMMB3B1bHAtY2EwHhcNMTcwMTI1MTczNTQwWhcNMjcwMTIzMTczNTQwWjAVMRMw
EQYDVQQDDAplX3dpbGRjYXJkMIICIjANBgkqhkiG9w0BAQEFAAOCAg8AMIICCgKC
AgEAwPTvUaNcH3FCqVnN+hpezERmYz1S9dJUVrLtZ9JWfvzfyEHcWR5nFx4WpB3o
7T4bwFzfQipB29UcBFsXUboo1Va4bpJ9KKTNCpuz6KuMrhLQXve291jRV2wkTKXJ
KO3PBH5oC/4lZEw/BjQCN/k1/3RySRZYCgxpCKza54BP4NPc5Ag6XlAN0SxAtu0P
rfumpVq2JTXYfY1vtuVRIet//aWf1qifeealRs9ZUhDw/bWR7BA0DOe6e9CTrhdt
kiGvxWs6ul3marUihUWrz7dJlfqh+smapnlwSXgH7xtHne02DTXfLEjp+hicvczW
AihKxz+JulSNs38YDWMr/3+VHFgMX/sTb2QnbImPLxdajvQl9O6zD/lJzBUY65hm
8/Lnn3leDhEaPpb7AmBwWjlGMMNGkeuRqSppjWqq0t8V+owv/uYfP5F0hg9Nah1o
kk3DAryjEVbZ2crxTSc9gmnIfP7rzmpwh/isughnrM3z9ChYEk3ijTTAuQB7q6Ez
jQc52wr1bvXypRXCR+OHwkd96zYpac+cGX3znZ6izmwo7UohE+j+BWkWWRpnUWvp
9iq9ViL7DfTNIRS/y6vBge8bXrPGEKhsSSC/SDhMASrrr0UOy2uvEmVHaxdNilMQ
EShg4YClWruJCQMLoW0GtzhzwLzJO1BZ5vkmBGHuKzEl030CAwEAAaOBmDCBlTAJ
BgNVHRMEAjAAMCgGDCsGAQQBkggJAgABAQQYDBZQdWxwIFByb2R1Y3Rpb24gTXlS
ZXBvMCIGDCsGAQQBkggJAgABAgQSDBBwdWxwLXByb2QtbXlyZXBvMDoGDCsGAQQB
kggJAgABBgQqDChyZXBvcy9wdWxwL3B1bHAvJHJlbGVhc2V2ZXIvJGJhc2VhcmNo
L29zMA0GCSqGSIb3DQEBCwUAA4ICAQCHTkyCgI+ehupdJBtM2ExEWiYXUfvK1Eq/
nCzo8B1Du9CPG/xv2yHvdHI21cMHWlzRx0kMaW2FYA3WEHVKHheGXWU+wWxgrpNA
eL41b+hWMmY20YoOU/CXAXs5CI8+JRh3EFZRI6IlMfSXEpmFUHord10rU17xM/7Y
eWNvru+Z1RcXn18XANnUBr6xRgbOTb1JPjTBNKqPvaLhkqAAkfoCHZfTHiToLmsF
x9vg5vhZNIw73Ld/Z8zT3Q5OLlNdwWMwFg4jVTsi60Eer3L5j4RIUGv7h1l8cOZZ
M8plGitWv6JHSU5CoWSl0DycHoGFsvMmkIcotLKOSEquiN+0cmkDuO1AOjvnof7T
tY1lrzmLCfdBRDg+X1QZYol2Udkaa8aDhg5WNkVaV37Wk4/XlThtwUOGT9US8Aqp
N06pBo5/kQvt+HlrN42dyNdP+ZX+17VsYFXTOq0o3agBz55+e2xplB4R8lW86I3j
23gsl9k5tf3vRtpDghyCL1VSdQrTq2sZVpKha0yRNS7iT+zriTdBEyWnHaP8IbaO
yoMBGRjEM/vZ9TyPGxPzsmhYXiiRri1UwhfVWnbvcWOfhHOddbIWgucQNFebmZZL
KP6NjjEHXN7G1+CqISFN8HQ1zEJ0Ni1GgOnCR+Qay93NF4JS80ccqaIbo/2LXftX
KeQ9NmijVQ==
-----END CERTIFICATE-----
