Certificate:
    Data:
        Version: 3 (0x2)
        Serial Number:
            86:37:9f:75:88:40:23:2e
    Signature Algorithm: sha256WithRSAEncryption
        Issuer: CN = pulp-other-ca
        Validity
            Not Before: Jan 25 20:38:08 2018 GMT
            Not After : Jan 23 20:38:08 2028 GMT
        Subject: CN = other_cert
        Subject Public Key Info:
            Public Key Algorithm: rsaEncryption
                Public-Key: (4096 bit)
                Modulus:
                    00:cb:fe:15:1f:31:84:1a:27:b3:76:9a:ca:f5:f7:
                    06:7a:7d:8d:58:ec:b7:d3:9a:7f:b1:d6:f9:47:49:
                    ad:0b:1a:a6:26:b7:8a:6e:05:0e:d3:59:98:39:06:
                    08:15:73:db:69:7f:53:0e:f8:a8:b5:b6:08:c2:18:
                    11:8b:0d:5e:df:12:24:68:13:60:71:c9:db:ad:07:
                    6e:35:e7:9d:a6:99:6d:52:cd:56:11:c7:b8:cc:5c:
                    5d:ef:d2:54:98:60:17:2f:10:0a:d8:a4:2c:83:7f:
                    6d:de:49:4e:35:19:7d:db:3c:cf:e5:46:25:c7:81:
                    36:54:cf:d7:41:9b:60:ad:58:21:c9:ac:31:a8:53:
                    cf:46:46:1e:cd:d3:a2:37:5e:d6:df:a8:fa:4e:02:
                    59:f1:cd:5c:ed:0d:4c:cc:6a:49:15:2a:e5:3e:25:
                    50:5c:cc:e9:23:39:39:32:cb:cb:3b:ca:0a:f9:81:
                    f9:91:be:75:c8:bf:67:e5:07:bc:d1:b6:54:5c:1a:
                    c3:d3:d4:62:a4:8b:a2:d6:fe:67:0a:83:ac:bd:82:
                    5d:95:dc:0c:27:1e:b6:28:13:fc:31:75:6c:23:67:
                    8c:c0:ad:6a:69:c5:9b:e2:0c:ca:18:59:89:ad:bf:
                    56:70:3c:2c:25:be:b0:a0:d9:9f:9e:19:cc:c5:5d:
                    91:53:00:02:e2:2e:f5:c8:a7:c6:ef:56:67:a8:23:
                    54:d4:0b:5c:9d:57:72:c9:57:80:ee:a0:2c:aa:9a:
                    2c:0e:1c:4d:9f:74:f5:a7:5f:5c:49:0d:be:cd:83:
                    44:e7:25:16:02:a7:c9:09:e7:a1:16:b1:c2:53:e1:
                    4f:43:62:9d:ab:cf:c8:df:3e:5a:6e:a7:13:82:f7:
                    ce:c7:fe:16:84:30:04:fe:29:2c:12:16:d4:3e:34:
                    8c:c5:de:02:a6:1a:f6:de:a1:e3:ff:81:0f:93:1b:
                    78:68:56:67:3b:91:cf:a5:83:1f:4b:4b:b7:16:6a:
                    f2:50:09:a5:81:20:05:b1:5a:0b:23:ca:ff:9e:c2:
                    63:ca:d1:ee:f6:0c:49:f3:ba:2b:b9:33:59:1a:6b:
                    e3:02:c5:77:38:de:e3:7b:1c:47:b7:e4:e3:16:ac:
                    a6:2b:5f:18:ab:20:07:23:62:df:76:9e:ff:f8:65:
                    91:22:94:fe:30:96:05:02:7e:ab:8d:44:cf:43:73:
                    56:f5:6f:b0:b8:73:73:0b:68:2f:28:67:cf:b6:83:
                    b7:cb:81:d4:a2:a4:7d:09:ca:8e:06:4b:6a:42:04:
                    dd:3b:52:f6:42:a3:89:39:59:21:98:12:ab:7f:7f:
                    8e:e5:e1:20:84:a3:75:00:21:f3:5d:90:a6:56:f8:
                    dd:0d:a1
                Exponent: 65537 (0x10001)
        X509v3 extensions:
            X509v3 Subject Alternative Name: 
                DNS:dev, DNS:dev.example.com
            X509v3 Basic Constraints: 
                CA:FALSE
            Netscape Comment: 
                OpenSSL Generated Certificate
            X509v3 Subject Key Identifier: 
                18:72:14:D1:5B:12:B9:FB:35:00:00:D4:A4:FF:09:C3:E2:73:93:02
            X509v3 Authority Key Identifier: 
                keyid:42:DE:50:44:56:F0:BD:C0:AF:FF:33:10:95:62:B9:F7:B2:47:09:20

    Signature Algorithm: sha256WithRSAEncryption
         9b:05:48:1d:e9:ed:53:7b:95:16:1e:da:ac:c1:84:e5:e5:75:
         f6:03:6e:85:29:b1:5e:76:7f:ea:8c:c7:99:e9:97:d1:74:b0:
         82:ea:49:be:f2:a8:a2:b7:13:0c:f1:8c:e6:dc:9c:ae:06:ed:
         24:20:7b:be:bd:00:bd:84:75:c7:48:e9:e3:74:2c:e0:9b:9a:
         a0:3b:73:7a:65:5c:fe:ab:d0:84:17:a5:e4:58:3b:15:4a:14:
         46:52:4e:ad:aa:3f:ec:3d:4a:7d:12:6b:ab:d6:58:20:fd:63:
         fc:27:aa:61:88:2d:2f:bf:d7:b8:39:b8:2c:64:8c:8a:a6:32:
         ac:df:86:9f:b2:d6:96:b7:29:13:1b:d4:12:86:7c:54:d9:cf:
         ab:8b:9a:83:90:17:ef:5d:5c:37:86:12:ef:b3:f2:30:b0:07:
         6f:10:aa:5c:50:85:0b:24:15:54:86:a3:be:86:22:57:c7:4f:
         bb:d3:b3:31:6b:7c:94:4d:3a:9d:41:01:48:28:13:5a:5f:98:
         57:24:6b:e2:cf:4c:42:4f:c4:66:16:4f:77:f8:75:c3:03:e2:
         d6:77:3c:2d:58:ff:2b:ce:61:80:95:6e:18:aa:ad:d5:2a:3f:
         06:4b:a8:b6:c3:87:6e:c0:fb:8a:42:39:71:5c:2d:72:6c:48:
         fe:ed:59:41:ce:17:01:6c:39:8e:fe:0c:0f:31:08:d6:3a:d6:
         5b:42:15:fe:04:de:a6:de:97:0e:31:ea:87:d1:a4:d5:c3:a4:
         d3:ca:63:ee:d2:da:20:78:d6:1d:16:5f:18:ea:ef:4a:bc:df:
         b6:3d:7d:9f:d7:d7:76:51:09:ad:59:17:f0:5c:1e:25:06:1d:
         74:d9:84:a5:ec:be:11:03:0b:97:69:2a:d7:a5:64:d9:4f:2d:
         cb:34:34:46:50:8b:91:a1:4f:15:40:f6:7b:c0:71:81:c2:db:
         eb:46:42:2d:8c:df:49:3a:80:7a:f6:22:4c:95:2b:c1:bf:56:
         1c:eb:14:98:65:9b:43:eb:8d:93:63:5e:99:6f:1c:4f:a7:31:
         c9:14:6a:02:35:3b:aa:0c:e1:ff:fa:49:b1:f2:d4:29:c7:1d:
         96:d4:37:0f:f5:12:85:57:7a:a2:89:f0:25:3a:aa:2d:27:41:
         1f:1c:e9:11:68:94:ae:61:a4:18:fd:b3:a6:e6:12:d1:12:cf:
         b3:73:b5:7e:55:86:f7:1b:48:47:76:9b:32:f1:ed:8c:b0:70:
         9e:9f:8c:ea:16:bd:00:e6:5b:3d:67:c5:a0:89:39:3c:2f:1b:
         f3:f6:0c:ba:70:c4:88:38:37:c9:65:89:1e:28:a3:5e:7b:69:
         f1:c8:03:87:76:d2:dc:a4
-----BEGIN CERTIFICATE-----
MIIFTjCCAzagAwIBAgIJAIY3n3WIQCMuMA0GCSqGSIb3DQEBCwUAMBgxFjAUBgNV
BAMMDXB1bHAtb3RoZXItY2EwHhcNMTgwMTI1MjAzODA4WhcNMjgwMTIzMjAzODA4
WjAVMRMwEQYDVQQDDApvdGhlcl9jZXJ0MIICIjANBgkqhkiG9w0BAQEFAAOCAg8A
MIICCgKCAgEAy/4VHzGEGiezdprK9fcGen2NWOy305p/sdb5R0mtCxqmJreKbgUO
01mYOQYIFXPbaX9TDviotbYIwhgRiw1e3xIkaBNgccnbrQduNeedppltUs1WEce4
zFxd79JUmGAXLxAK2KQsg39t3klONRl92zzP5UYlx4E2VM/XQZtgrVghyawxqFPP
RkYezdOiN17W36j6TgJZ8c1c7Q1MzGpJFSrlPiVQXMzpIzk5MsvLO8oK+YH5kb51
yL9n5Qe80bZUXBrD09RipIui1v5nCoOsvYJdldwMJx62KBP8MXVsI2eMwK1qacWb
4gzKGFmJrb9WcDwsJb6woNmfnhnMxV2RUwAC4i71yKfG71ZnqCNU1AtcnVdyyVeA
7qAsqposDhxNn3T1p19cSQ2+zYNE5yUWAqfJCeehFrHCU+FPQ2Kdq8/I3z5abqcT
gvfOx/4WhDAE/iksEhbUPjSMxd4Cphr23qHj/4EPkxt4aFZnO5HPpYMfS0u3Fmry
UAmlgSAFsVoLI8r/nsJjytHu9gxJ87oruTNZGmvjAsV3ON7jexxHt+TjFqymK18Y
qyAHI2Lfdp7/+GWRIpT+MJYFAn6rjUTPQ3NW9W+wuHNzC2gvKGfPtoO3y4HUoqR9
CcqOBktqQgTdO1L2QqOJOVkhmBKrf3+O5eEghKN1ACHzXZCmVvjdDaECAwEAAaOB
nTCBmjAfBgNVHREEGDAWggNkZXaCD2Rldi5leGFtcGxlLmNvbTAJBgNVHRMEAjAA
MCwGCWCGSAGG+EIBDQQfFh1PcGVuU1NMIEdlbmVyYXRlZCBDZXJ0aWZpY2F0ZTAd
BgNVHQ4EFgQUGHIU0VsSufs1AADUpP8Jw+JzkwIwHwYDVR0jBBgwFoAUQt5QRFbw
vcCv/zMQlWK597JHCSAwDQYJKoZIhvcNAQELBQADggIBAJsFSB3p7VN7lRYe2qzB
hOXldfYDboUpsV52f+qMx5npl9F0sILqSb7yqKK3EwzxjObcnK4G7SQge769AL2E
dcdI6eN0LOCbmqA7c3plXP6r0IQXpeRYOxVKFEZSTq2qP+w9Sn0Sa6vWWCD9Y/wn
qmGILS+/17g5uCxkjIqmMqzfhp+y1pa3KRMb1BKGfFTZz6uLmoOQF+9dXDeGEu+z
8jCwB28QqlxQhQskFVSGo76GIlfHT7vTszFrfJRNOp1BAUgoE1pfmFcka+LPTEJP
xGYWT3f4dcMD4tZ3PC1Y/yvOYYCVbhiqrdUqPwZLqLbDh27A+4pCOXFcLXJsSP7t
WUHOFwFsOY7+DA8xCNY61ltCFf4E3qbelw4x6ofRpNXDpNPKY+7S2iB41h0WXxjq
70q837Y9fZ/X13ZRCa1ZF/BcHiUGHXTZhKXsvhEDC5dpKtelZNlPLcs0NEZQi5Gh
TxVA9nvAcYHC2+tGQi2M30k6gHr2IkyVK8G/VhzrFJhlm0PrjZNjXplvHE+nMckU
agI1O6oM4f/6SbHy1CnHHZbUNw/1EoVXeqKJ8CU6qi0nQR8c6RFolK5hpBj9s6bm
EtESz7NztX5VhvcbSEd2mzLx7YywcJ6fjOoWvQDmWz1nxaCJOTwvG/P2DLpwxIg4
N8lliR4oo157afHIA4d20tyk
-----END CERTIFICATE-----
