Certificate:
    Data:
        Version: 3 (0x2)
        Serial Number:
            ce:ed:3c:89:ce:41:c2:45
    Signature Algorithm: sha256WithRSAEncryption
        Issuer: CN=pulp-other-ca
        Validity
            Not Before: Jan 25 17:35:38 2017 GMT
            Not After : Jan 23 17:35:38 2027 GMT
        Subject: CN=other_cert
        Subject Public Key Info:
            Public Key Algorithm: rsaEncryption
                Public-Key: (4096 bit)
                Modulus:
                    00:b6:9d:20:3c:b9:53:2d:bf:04:c0:1c:0a:c9:c6:
                    7b:30:2b:5a:31:1d:4f:e0:85:54:84:44:43:54:ed:
                    91:80:b1:59:ff:08:78:3c:df:23:f6:f2:8c:a7:61:
                    c8:00:18:f3:a0:57:67:17:78:99:1d:b4:94:52:da:
                    7d:47:9d:18:39:5b:6a:da:a0:2a:28:df:e2:ee:1c:
                    6f:91:03:41:40:b5:40:f3:ca:ae:f4:f3:00:dc:34:
                    d7:f0:18:c7:f9:1d:91:7c:ec:28:96:4c:68:d7:29:
                    3d:67:10:1c:c8:89:c7:92:ae:20:d5:ac:a1:06:7b:
                    1e:6b:dd:20:98:55:f1:fb:a8:36:25:aa:35:9c:69:
                    bb:d5:dd:c6:b9:53:b4:8c:45:9d:48:d4:a7:d1:a9:
                    67:52:c0:da:68:87:1d:d5:c3:6a:56:66:ce:1b:11:
                    1b:a5:37:c7:c9:2d:b0:0a:28:6f:66:5e:19:ef:f2:
                    34:c7:8d:f1:54:7c:c2:94:2f:0e:5f:17:ae:8d:41:
                    e0:da:46:f1:3a:e9:fc:57:d1:80:42:f7:f7:5d:0e:
                    8a:e5:55:72:fe:a6:3a:b9:6e:dd:c0:cd:10:18:33:
                    4d:60:82:1c:49:75:12:e7:ee:04:26:3d:7f:5b:07:
                    df:ee:27:de:98:62:b4:18:45:de:fe:e1:1c:64:9c:
                    a7:a7:11:ba:93:87:e7:88:42:f2:03:b2:48:86:bb:
                    39:35:f1:c2:f5:65:db:26:59:b4:72:00:28:7c:6e:
                    5c:1c:13:27:58:6a:e8:c3:e8:07:89:9a:ad:94:4a:
                    88:aa:68:e2:99:83:1d:74:4e:ee:20:df:44:10:08:
                    d9:7d:21:f2:03:23:23:ed:4d:07:57:c5:c7:7c:88:
                    92:17:3b:d4:f3:ce:3e:69:31:60:33:f6:9b:c4:c3:
                    90:f0:4b:91:7d:f1:21:7f:1d:b5:9a:d6:26:ec:8b:
                    c0:2d:b4:94:07:65:38:bc:95:44:d8:1d:f0:f6:90:
                    61:7f:d9:45:8f:6a:94:38:ce:ad:a0:94:d7:5b:12:
                    3b:33:e5:21:83:b8:13:9f:f4:53:74:51:b3:91:a0:
                    3a:14:5d:11:f9:e8:9c:62:1c:3c:3b:a3:be:7e:0d:
                    48:9b:11:af:2f:ec:e2:6a:3e:4c:be:ea:40:e3:58:
                    e2:da:af:95:f2:a2:ec:45:8f:83:3c:aa:2c:72:49:
                    35:2d:ff:b2:61:c7:01:33:84:0d:06:26:c6:59:9e:
                    46:b1:c0:36:57:01:bf:32:f3:df:f5:51:df:71:db:
                    f3:da:0d:a1:7e:1a:8c:c9:90:72:69:0f:a7:46:28:
                    fe:2b:45:16:3b:08:5a:88:e9:6f:13:c1:d1:ba:15:
                    94:bc:25
                Exponent: 65537 (0x10001)
        X509v3 extensions:
            X509v3 Subject Alternative Name: 
                DNS:dev, DNS:dev.example.com
            X509v3 Basic Constraints: 
                CA:FALSE
            Netscape Comment: 
                OpenSSL Generated Certificate
            X509v3 Subject Key Identifier: 
                1D:9F:42:4B:7C:0F:B8:5A:69:74:7C:55:F8:9D:4C:90:DC:DC:56:3E
            X509v3 Authority Key Identifier: 
                keyid:9D:8D:61:BC:83:31:F0:79:17:17:81:DA:25:21:0B:1C:34:39:EA:A4

    Signature Algorithm: sha256WithRSAEncryption
         31:be:73:94:1b:e5:4a:15:29:fe:a0:cc:d4:3a:ce:2d:48:dc:
         12:72:25:8d:ea:a2:7f:f5:6a:be:f9:91:63:2e:23:b3:fa:87:
         cf:e7:55:54:f0:85:77:d6:9b:12:92:ee:84:82:71:cd:41:7d:
         24:4a:96:84:18:e9:41:5e:45:fe:87:70:0f:7f:74:0f:f6:a7:
         b7:c7:df:b4:7c:9e:e1:5c:4b:27:a8:39:4c:ba:c7:04:2a:e6:
         eb:f1:4c:c9:2e:6d:5c:ff:22:93:4b:d4:a1:60:9c:2a:69:8d:
         98:2e:94:eb:07:9a:4e:d0:30:be:e6:99:52:1d:40:bc:4e:d1:
         96:2c:de:d1:69:64:3e:9f:37:22:75:f7:97:66:e2:34:1d:7f:
         30:ed:bd:d0:47:57:d1:95:c8:98:d3:fa:5b:c6:f1:38:e1:04:
         5c:6c:28:8d:96:5a:7a:57:e1:b1:ba:42:f9:b2:e7:ce:48:a0:
         f6:b1:54:3e:44:70:04:ab:89:99:cc:15:7a:69:d4:ee:4c:4f:
         de:5b:78:b7:1a:b6:fe:e7:de:fa:72:01:c8:02:3a:a7:4d:d2:
         27:17:ad:a8:d0:fd:84:ec:e1:e2:84:a1:4e:e3:59:48:67:cb:
         7d:00:6b:4b:b9:36:d5:70:28:fa:44:d8:cf:86:c1:24:a5:35:
         4c:15:c1:9a:ec:5c:3c:2f:ea:f7:3b:3f:13:06:de:61:97:ec:
         80:ad:4c:85:62:65:d5:26:8f:40:6e:90:34:84:62:05:27:c0:
         0a:1e:7b:e2:10:e5:92:b1:fd:4a:76:d0:01:08:1d:d6:c1:c0:
         6b:de:83:51:70:1c:73:94:7b:43:6c:3d:8d:ce:ae:77:9a:72:
         31:e5:b3:fa:80:f8:c5:20:81:ca:5f:e2:69:d0:b4:4b:96:60:
         30:b2:bf:2c:52:75:54:5b:60:93:30:c8:aa:9d:15:70:1b:1d:
         ab:de:fd:63:38:46:1e:18:3b:b3:4d:45:74:de:22:8b:13:d4:
         40:57:99:5f:6b:f8:ea:54:9a:36:72:99:42:36:26:56:7f:de:
         34:61:ce:de:d1:32:7a:a1:14:f9:2b:b7:18:ea:6c:d9:2e:89:
         3d:cc:d0:cf:08:3e:7d:0f:00:24:fe:df:93:60:dd:be:f8:d1:
         13:d0:82:42:b0:96:69:08:9e:5d:05:9b:82:ad:8c:73:cf:b7:
         5e:3b:d2:b1:08:a4:d0:b3:f3:7b:82:ee:40:34:04:f4:7b:3f:
         99:1d:4f:38:87:2a:38:32:56:0c:6e:52:76:9d:5f:44:c8:f9:
         97:99:63:d6:a2:a9:0f:da:32:4d:05:4f:3a:b9:d6:92:38:82:
         e1:d7:db:98:27:fb:f3:26
-----BEGIN CERTIFICATE-----
MIIFTjCCAzagAwIBAgIJAM7tPInOQcJFMA0GCSqGSIb3DQEBCwUAMBgxFjAUBgNV
BAMMDXB1bHAtb3RoZXItY2EwHhcNMTcwMTI1MTczNTM4WhcNMjcwMTIzMTczNTM4
WjAVMRMwEQYDVQQDDApvdGhlcl9jZXJ0MIICIjANBgkqhkiG9w0BAQEFAAOCAg8A
MIICCgKCAgEAtp0gPLlTLb8EwBwKycZ7MCtaMR1P4IVUhERDVO2RgLFZ/wh4PN8j
9vKMp2HIABjzoFdnF3iZHbSUUtp9R50YOVtq2qAqKN/i7hxvkQNBQLVA88qu9PMA
3DTX8BjH+R2RfOwolkxo1yk9ZxAcyInHkq4g1ayhBnsea90gmFXx+6g2Jao1nGm7
1d3GuVO0jEWdSNSn0alnUsDaaIcd1cNqVmbOGxEbpTfHyS2wCihvZl4Z7/I0x43x
VHzClC8OXxeujUHg2kbxOun8V9GAQvf3XQ6K5VVy/qY6uW7dwM0QGDNNYIIcSXUS
5+4EJj1/Wwff7ifemGK0GEXe/uEcZJynpxG6k4fniELyA7JIhrs5NfHC9WXbJlm0
cgAofG5cHBMnWGrow+gHiZqtlEqIqmjimYMddE7uIN9EEAjZfSHyAyMj7U0HV8XH
fIiSFzvU884+aTFgM/abxMOQ8EuRffEhfx21mtYm7IvALbSUB2U4vJVE2B3w9pBh
f9lFj2qUOM6toJTXWxI7M+Uhg7gTn/RTdFGzkaA6FF0R+eicYhw8O6O+fg1ImxGv
L+ziaj5MvupA41ji2q+V8qLsRY+DPKosckk1Lf+yYccBM4QNBibGWZ5GscA2VwG/
MvPf9VHfcdvz2g2hfhqMyZByaQ+nRij+K0UWOwhaiOlvE8HRuhWUvCUCAwEAAaOB
nTCBmjAfBgNVHREEGDAWggNkZXaCD2Rldi5leGFtcGxlLmNvbTAJBgNVHRMEAjAA
MCwGCWCGSAGG+EIBDQQfFh1PcGVuU1NMIEdlbmVyYXRlZCBDZXJ0aWZpY2F0ZTAd
BgNVHQ4EFgQUHZ9CS3wPuFppdHxV+J1MkNzcVj4wHwYDVR0jBBgwFoAUnY1hvIMx
8HkXF4HaJSELHDQ56qQwDQYJKoZIhvcNAQELBQADggIBADG+c5Qb5UoVKf6gzNQ6
zi1I3BJyJY3qon/1ar75kWMuI7P6h8/nVVTwhXfWmxKS7oSCcc1BfSRKloQY6UFe
Rf6HcA9/dA/2p7fH37R8nuFcSyeoOUy6xwQq5uvxTMkubVz/IpNL1KFgnCppjZgu
lOsHmk7QML7mmVIdQLxO0ZYs3tFpZD6fNyJ195dm4jQdfzDtvdBHV9GVyJjT+lvG
8TjhBFxsKI2WWnpX4bG6Qvmy585IoPaxVD5EcASriZnMFXpp1O5MT95beLcatv7n
3vpyAcgCOqdN0icXrajQ/YTs4eKEoU7jWUhny30Aa0u5NtVwKPpE2M+GwSSlNUwV
wZrsXDwv6vc7PxMG3mGX7ICtTIViZdUmj0BukDSEYgUnwAoee+IQ5ZKx/Up20AEI
HdbBwGveg1FwHHOUe0NsPY3OrneacjHls/qA+MUggcpf4mnQtEuWYDCyvyxSdVRb
YJMwyKqdFXAbHave/WM4Rh4YO7NNRXTeIosT1EBXmV9r+OpUmjZymUI2JlZ/3jRh
zt7RMnqhFPkrtxjqbNkuiT3M0M8IPn0PACT+35Ng3b740RPQgkKwlmkInl0Fm4Kt
jHPPt1470rEIpNCz83uC7kA0BPR7P5kdTziHKjgyVgxuUnadX0TI+ZeZY9aiqQ/a
Mk0FTzq51pI4guHX25gn+/Mm
-----END CERTIFICATE-----
