Certificate:
    Data:
        Version: 3 (0x2)
        Serial Number: 15293634890457505785 (0xd43de7e75a3d5ff9)
    Signature Algorithm: sha1WithRSAEncryption
        Issuer: CN=pulp-other-ca
        Validity
            Not Before: May  9 19:52:14 2017 GMT
            Not After : May  7 19:52:14 2027 GMT
        Subject: CN=other_cert
        Subject Public Key Info:
            Public Key Algorithm: rsaEncryption
                Public-Key: (4096 bit)
                Modulus:
                    00:a6:0d:8c:ec:96:5a:45:65:5c:8e:47:52:42:1f:
                    34:7b:68:e5:14:01:42:56:60:e6:74:82:64:40:de:
                    bb:b0:e6:ac:87:3e:f7:45:65:68:80:ac:24:df:e3:
                    46:55:15:cf:a9:42:5e:c7:bb:e4:78:3f:0f:9b:a7:
                    2c:b5:f1:1c:e2:dd:8d:25:d3:de:04:b0:f1:29:a1:
                    9d:84:72:1a:c7:38:01:52:db:f5:0b:51:04:25:1e:
                    06:f8:64:e3:39:5c:42:ed:49:d0:75:34:7a:c4:67:
                    65:c4:06:1d:e4:be:01:e1:57:dc:c6:ba:7f:76:ab:
                    33:e2:ac:da:3d:8a:e7:11:24:b0:9e:56:11:28:79:
                    b0:1b:4c:8b:89:43:fb:59:5f:dd:60:ca:11:ab:b9:
                    40:ab:a2:54:08:33:be:96:f1:5e:0b:1e:db:8a:05:
                    dd:4d:fc:0b:b0:69:8a:d4:02:69:eb:ad:22:61:c4:
                    40:bc:8c:bc:c3:6e:ee:a6:0e:c9:49:21:d9:67:f3:
                    50:29:dd:3e:a2:3a:b0:a8:5b:ca:db:33:d3:87:3e:
                    74:6a:33:17:6a:04:ea:d1:16:f3:ab:bb:af:e0:ec:
                    75:cb:84:0f:24:8a:c1:98:5c:fa:b3:3a:2d:8a:eb:
                    e2:06:b5:2b:2e:75:d2:29:48:4c:4e:f1:76:ed:b5:
                    ad:4d:2b:b4:aa:f3:5b:5e:c1:42:66:94:71:e4:e1:
                    4c:66:64:a5:3c:1d:f9:8e:2b:79:7f:d3:be:67:c4:
                    b0:1d:a6:01:bf:72:f4:cb:5d:f4:07:5e:ec:9d:b5:
                    cb:e1:d7:e8:4a:35:48:e0:3d:e9:79:48:43:5a:5f:
                    64:5a:d3:53:0f:a6:6c:17:e4:57:c8:b7:57:9b:6c:
                    f4:c8:61:fa:7d:ab:cd:7d:70:7e:03:88:c2:23:e2:
                    58:7b:7a:fc:08:e9:18:4e:97:f2:39:fe:62:89:12:
                    5b:7a:61:17:e8:ad:a6:19:82:fd:6e:91:41:8a:7d:
                    2f:01:48:0d:84:f6:a7:1f:53:6e:4e:d7:a5:ae:ba:
                    46:7f:db:8a:e2:ee:ce:8f:13:d5:0d:2a:ab:91:92:
                    27:7f:26:88:dc:2d:29:cd:c2:ec:4d:f4:d1:b4:b9:
                    bd:13:e1:e8:2b:8d:ef:fa:d2:41:cd:36:b0:8f:0f:
                    e9:fc:30:53:6b:bb:41:05:e6:53:22:5c:b3:c3:04:
                    6c:a7:f0:05:67:14:0b:21:50:f8:75:91:e5:8b:e7:
                    88:4c:5c:15:56:a0:7a:01:e9:69:78:99:2e:d1:e1:
                    a8:62:bd:24:11:14:0a:0a:92:c1:33:e6:ce:9b:52:
                    34:7b:dd:22:ad:e7:46:c0:b3:b7:68:3c:75:70:0d:
                    bf:26:ef
                Exponent: 65537 (0x10001)
        X509v3 extensions:
            X509v3 Subject Alternative Name: 
                DNS:dev, DNS:dev.example.com
            X509v3 Basic Constraints: 
                CA:FALSE
            Netscape Comment: 
                OpenSSL Generated Certificate
            X509v3 Subject Key Identifier: 
                CD:8A:10:D5:93:5B:1E:C5:7A:09:EC:74:68:FB:BD:57:44:72:68:CE
            X509v3 Authority Key Identifier: 
                keyid:60:B2:5E:4E:99:FC:56:6D:62:61:9B:35:F8:1B:76:EE:F8:93:C7:9B

    Signature Algorithm: sha1WithRSAEncryption
         92:57:34:ac:d2:69:41:98:27:e9:e1:cc:a3:05:85:08:b0:da:
         ed:02:17:86:55:b5:34:02:11:89:94:11:95:22:eb:60:46:4c:
         41:e5:9f:8f:5e:55:56:10:33:79:e1:d2:d6:5a:46:41:77:9b:
         f1:e8:4a:cc:b9:82:8e:3c:bf:73:ff:33:69:f9:31:8a:37:a8:
         0e:33:6f:05:e7:f5:ef:1a:90:c9:1e:20:51:53:be:81:ec:9d:
         b6:e8:e8:95:e3:bf:e5:e8:77:35:26:0c:63:a2:e3:49:49:65:
         e3:e3:61:0c:10:3b:ce:34:5f:6c:be:92:da:51:e0:57:33:3b:
         02:72:1f:62:d4:d4:18:9b:2a:53:16:4b:2f:0f:ff:93:cf:29:
         63:eb:52:6b:ba:06:97:6f:d7:72:9a:e0:3d:19:22:95:56:df:
         67:83:10:f5:df:b3:7f:55:e4:d9:be:a2:9b:46:05:ba:73:c4:
         d6:17:81:4e:4a:20:6b:15:3b:3f:a7:9c:7a:56:6f:95:1f:9d:
         a6:50:7d:31:0a:4c:d6:7d:10:05:4d:9d:2d:a3:53:57:76:ad:
         8a:f3:08:84:36:df:9f:0c:65:8a:fb:f9:58:63:5c:23:fe:f7:
         93:b6:7d:c1:4d:0b:15:37:fb:45:bc:45:4f:31:32:b4:39:af:
         26:66:0f:2d:1f:63:75:cc:1a:9f:cb:5d:55:f6:e7:d1:8b:e4:
         b8:5a:1e:39:c9:85:a4:d8:17:95:55:97:68:2a:4f:83:72:22:
         6c:7c:e5:d0:cd:e1:2c:c1:2f:7d:75:3b:d5:02:40:a7:a4:bd:
         0e:1e:13:4b:16:99:ce:f4:4c:15:2a:33:27:e2:5c:21:46:e9:
         bf:c2:36:5c:03:44:3f:3d:76:d4:d7:5a:91:5a:3d:c2:b8:3e:
         7b:2b:4d:da:50:55:20:26:4f:0d:4b:1e:7d:15:2d:2d:cd:5e:
         ee:8a:f0:3f:ee:5d:d4:b5:e2:91:59:6f:88:3d:e3:39:cb:e8:
         e9:c9:24:c1:8e:c4:5e:d6:77:7a:fa:89:27:95:bd:8b:72:ea:
         f1:86:df:d9:0e:c0:8a:1a:b1:27:f1:c5:bc:6b:a7:6e:6e:ee:
         9b:92:60:67:ca:60:db:5f:32:cc:0d:29:dd:80:d5:7d:ba:29:
         5e:8d:30:52:96:ef:8f:44:eb:31:ec:5f:f6:58:b7:ee:26:b8:
         80:62:65:cc:40:d2:c4:9e:60:c8:b7:92:42:06:14:c3:55:70:
         cf:0d:25:55:d0:4b:1f:42:e6:30:a4:34:01:b9:13:d8:cc:cb:
         40:2e:79:8a:e4:93:56:91:f7:9b:89:07:09:33:93:52:90:6d:
         6c:55:29:b2:03:6f:a8:f1
-----BEGIN CERTIFICATE-----
MIIFTjCCAzagAwIBAgIJANQ95+daPV/5MA0GCSqGSIb3DQEBBQUAMBgxFjAUBgNV
BAMTDXB1bHAtb3RoZXItY2EwHhcNMTcwNTA5MTk1MjE0WhcNMjcwNTA3MTk1MjE0
WjAVMRMwEQYDVQQDFApvdGhlcl9jZXJ0MIICIjANBgkqhkiG9w0BAQEFAAOCAg8A
MIICCgKCAgEApg2M7JZaRWVcjkdSQh80e2jlFAFCVmDmdIJkQN67sOashz73RWVo
gKwk3+NGVRXPqUJex7vkeD8Pm6cstfEc4t2NJdPeBLDxKaGdhHIaxzgBUtv1C1EE
JR4G+GTjOVxC7UnQdTR6xGdlxAYd5L4B4Vfcxrp/dqsz4qzaPYrnESSwnlYRKHmw
G0yLiUP7WV/dYMoRq7lAq6JUCDO+lvFeCx7bigXdTfwLsGmK1AJp660iYcRAvIy8
w27upg7JSSHZZ/NQKd0+ojqwqFvK2zPThz50ajMXagTq0Rbzq7uv4Ox1y4QPJIrB
mFz6szotiuviBrUrLnXSKUhMTvF27bWtTSu0qvNbXsFCZpRx5OFMZmSlPB35jit5
f9O+Z8SwHaYBv3L0y130B17snbXL4dfoSjVI4D3peUhDWl9kWtNTD6ZsF+RXyLdX
m2z0yGH6favNfXB+A4jCI+JYe3r8COkYTpfyOf5iiRJbemEX6K2mGYL9bpFBin0v
AUgNhPanH1NuTtelrrpGf9uK4u7OjxPVDSqrkZInfyaI3C0pzcLsTfTRtLm9E+Ho
K43v+tJBzTawjw/p/DBTa7tBBeZTIlyzwwRsp/AFZxQLIVD4dZHli+eITFwVVqB6
AelpeJku0eGoYr0kERQKCpLBM+bOm1I0e90iredGwLO3aDx1cA2/Ju8CAwEAAaOB
nTCBmjAfBgNVHREEGDAWggNkZXaCD2Rldi5leGFtcGxlLmNvbTAJBgNVHRMEAjAA
MCwGCWCGSAGG+EIBDQQfFh1PcGVuU1NMIEdlbmVyYXRlZCBDZXJ0aWZpY2F0ZTAd
BgNVHQ4EFgQUzYoQ1ZNbHsV6Cex0aPu9V0RyaM4wHwYDVR0jBBgwFoAUYLJeTpn8
Vm1iYZs1+Bt27viTx5swDQYJKoZIhvcNAQEFBQADggIBAJJXNKzSaUGYJ+nhzKMF
hQiw2u0CF4ZVtTQCEYmUEZUi62BGTEHln49eVVYQM3nh0tZaRkF3m/HoSsy5go48
v3P/M2n5MYo3qA4zbwXn9e8akMkeIFFTvoHsnbbo6JXjv+XodzUmDGOi40lJZePj
YQwQO840X2y+ktpR4FczOwJyH2LU1BibKlMWSy8P/5PPKWPrUmu6Bpdv13Ka4D0Z
IpVW32eDEPXfs39V5Nm+optGBbpzxNYXgU5KIGsVOz+nnHpWb5UfnaZQfTEKTNZ9
EAVNnS2jU1d2rYrzCIQ2358MZYr7+VhjXCP+95O2fcFNCxU3+0W8RU8xMrQ5ryZm
Dy0fY3XMGp/LXVX259GL5LhaHjnJhaTYF5VVl2gqT4NyImx85dDN4SzBL311O9UC
QKekvQ4eE0sWmc70TBUqMyfiXCFG6b/CNlwDRD89dtTXWpFaPcK4PnsrTdpQVSAm
Tw1LHn0VLS3NXu6K8D/uXdS14pFZb4g94znL6OnJJMGOxF7Wd3r6iSeVvYty6vGG
39kOwIoasSfxxbxrp25u7puSYGfKYNtfMswNKd2A1X26KV6NMFKW749E6zHsX/ZY
t+4muIBiZcxA0sSeYMi3kkIGFMNVcM8NJVXQSx9C5jCkNAG5E9jMy0AueYrkk1aR
95uJBwkzk1KQbWxVKbIDb6jx
-----END CERTIFICATE-----
