Certificate:
    Data:
        Version: 3 (0x2)
        Serial Number: 9446895539902489914 (0x831a1d71161c253a)
    Signature Algorithm: sha1WithRSAEncryption
        Issuer: CN=pulp-ca
        Validity
            Not Before: May  9 19:52:12 2017 GMT
            Not After : May  7 19:52:12 2027 GMT
        Subject: CN=cert
        Subject Public Key Info:
            Public Key Algorithm: rsaEncryption
                Public-Key: (4096 bit)
                Modulus:
                    00:a4:cd:f9:cc:14:5f:1e:17:aa:0b:f4:5a:70:e9:
                    07:e5:05:92:26:09:48:84:4b:8f:ba:94:cc:d9:8c:
                    bf:bb:a7:8a:b2:08:01:88:07:97:a2:1b:f1:95:2e:
                    fc:9e:66:47:f9:b1:0e:31:da:6d:48:cb:21:9c:97:
                    3a:d0:c1:ad:78:bf:2a:c0:8c:07:5b:06:44:bf:0a:
                    27:13:19:32:59:3e:de:e4:a0:e8:fa:e9:dd:12:d7:
                    54:47:96:ec:6f:3a:d1:75:78:8c:c0:3a:f1:a9:65:
                    bc:a6:36:92:d9:b4:c0:8c:8c:7e:02:48:21:82:29:
                    d3:be:7e:79:89:30:fd:b9:70:74:59:59:c4:a1:a8:
                    8a:3b:ca:65:1e:28:d3:77:09:0b:a9:58:41:b3:8c:
                    88:21:80:0c:33:7f:c4:8f:56:53:60:32:09:ae:67:
                    e4:73:07:ef:71:97:39:35:4a:a0:e1:bf:75:cb:89:
                    a1:69:1a:78:4f:74:2d:cc:fa:57:3d:f4:ca:da:9d:
                    26:ba:ef:1d:f1:ed:99:e9:60:0c:5d:ba:3c:fc:59:
                    59:43:80:1b:4d:12:a9:93:61:0d:27:7c:48:db:bc:
                    75:99:1d:f1:c2:29:58:79:d1:f9:90:49:51:7c:ec:
                    1a:6e:63:40:a0:3a:99:1b:d0:33:2e:fc:70:64:4f:
                    5c:b7:8d:52:e7:61:7c:bf:a6:5a:fe:83:a3:1b:7c:
                    f5:b5:20:16:43:8a:b8:11:6d:f4:52:1a:a1:30:22:
                    a6:ac:96:ae:64:2f:83:99:a0:50:a8:cd:2b:20:72:
                    25:29:1f:a7:8e:72:6e:e9:15:0e:5e:33:c2:ca:c8:
                    fc:e0:fa:70:34:2f:ef:76:01:d4:17:97:b9:f5:21:
                    54:a3:73:05:39:58:b5:ea:d4:df:1c:b0:a8:f0:26:
                    c2:43:ec:4c:31:02:c0:40:5d:53:29:aa:82:f5:54:
                    25:89:4c:c6:06:33:58:62:47:a7:42:49:3a:bf:5a:
                    58:d8:39:ef:5d:6b:3c:6f:f6:f2:d3:3b:c0:c5:a8:
                    a1:43:65:27:fd:3a:5d:d0:2a:e9:97:db:a5:4d:af:
                    bc:06:14:d3:70:14:82:e9:95:65:cc:f9:2b:67:24:
                    b1:ea:c3:4a:e1:50:b6:60:2e:54:2e:5b:f1:c2:4a:
                    85:25:39:bf:cd:5c:c2:b2:dc:39:b2:d7:6e:aa:cb:
                    63:2c:65:29:ff:cd:5b:28:f6:13:06:79:36:18:05:
                    75:73:87:3f:5d:58:4a:7a:6a:57:bd:8a:96:a2:a5:
                    f6:3e:25:f2:1f:6f:b3:fd:34:c5:9a:61:ba:18:a5:
                    b9:03:1d:97:bb:30:b6:dd:7d:15:08:2c:08:c5:1c:
                    3b:b1:51
                Exponent: 65537 (0x10001)
        X509v3 extensions:
            X509v3 Subject Alternative Name: 
                DNS:dev, DNS:dev.example.com
            X509v3 Basic Constraints: 
                CA:FALSE
            Netscape Comment: 
                OpenSSL Generated Certificate
            X509v3 Subject Key Identifier: 
                35:49:BC:31:1F:6C:22:71:52:96:B2:16:E7:12:38:BB:A1:06:36:98
            X509v3 Authority Key Identifier: 
                keyid:3C:3C:57:DF:03:A3:49:D9:4D:E4:EC:AF:4E:B2:64:BF:21:18:32:02

    Signature Algorithm: sha1WithRSAEncryption
         72:d0:e8:38:4a:31:29:6c:19:be:40:e1:e0:5b:10:c6:f6:41:
         93:bd:3e:82:0a:8d:bc:6d:91:57:ee:db:79:97:04:63:52:01:
         60:18:69:d4:65:6f:77:d3:1d:cd:b9:fe:c0:e5:e4:1e:14:7c:
         71:42:45:d9:6d:d2:0f:fb:67:f5:77:cf:62:cc:7f:d7:fb:c8:
         24:c4:5e:cd:dd:53:ae:2d:1f:7d:61:38:68:3a:75:ec:c5:b5:
         3f:87:9b:a2:55:8d:6a:47:95:41:76:c2:dc:e1:7d:81:7d:25:
         df:de:35:a3:22:f4:e3:3e:06:55:bc:f5:eb:92:ff:f0:33:37:
         da:5b:5f:28:36:d5:97:08:ea:9b:80:75:fd:37:3d:02:a7:c6:
         43:93:ac:da:93:44:c6:a2:f9:ff:ab:95:0c:cd:11:2f:2c:bc:
         e9:53:56:ec:5b:87:6d:80:1a:88:50:75:5a:4a:48:2c:ee:8f:
         1e:b6:33:b0:93:d5:fd:48:39:1e:86:0f:e0:41:7f:a3:f0:3e:
         a6:51:db:c9:9c:cf:0a:74:c8:ee:8a:99:e9:f6:74:92:ac:5e:
         cc:dc:13:8a:b5:df:a8:19:e1:35:0f:f3:60:3f:04:36:ee:3b:
         52:8c:be:a0:b8:4a:18:d8:be:1b:a9:59:1c:2d:54:b2:a5:8f:
         2c:5a:f1:ea:ee:91:a5:7a:0b:93:26:1b:64:d9:19:e3:7c:9e:
         28:a2:0f:cc:bb:b7:a2:e2:b8:45:ab:81:b7:bd:c7:3b:4f:ce:
         73:a6:94:eb:cb:59:a7:07:1b:17:30:7f:80:74:c6:3d:db:4e:
         6c:7f:8d:c3:5f:06:d6:16:47:bd:e0:cb:44:cc:31:4c:df:9c:
         94:6d:1d:89:e5:47:8b:df:f3:20:00:98:24:65:d3:7e:69:db:
         4b:60:45:74:a0:7d:aa:16:e9:9b:78:2b:de:1c:06:96:61:02:
         49:88:4c:30:e7:19:8c:cd:bb:d8:45:aa:84:b9:7d:09:2f:73:
         75:5d:61:bc:40:8d:d6:05:8b:3d:0f:d4:92:9d:bb:05:9f:aa:
         f7:72:bc:56:f2:3f:4a:cb:9c:32:22:8c:39:c2:80:a7:2c:d8:
         33:05:e7:c4:7d:1a:f2:be:73:b9:b1:a8:83:6c:8d:45:52:54:
         74:78:be:c9:79:c3:47:87:89:96:b1:4b:32:cc:e0:d3:df:2e:
         0d:2a:fc:93:3a:3d:73:90:2a:1d:72:78:24:35:88:48:0f:1c:
         bd:c6:5f:8e:a6:6f:40:4b:3e:ca:b5:53:ef:c4:62:b3:19:33:
         e9:bd:7c:83:27:98:59:6e:53:91:a8:21:9e:0e:1d:dc:2b:0b:
         1b:ad:c9:e5:36:39:bd:8b
-----BEGIN CERTIFICATE-----
MIIFQjCCAyqgAwIBAgIJAIMaHXEWHCU6MA0GCSqGSIb3DQEBBQUAMBIxEDAOBgNV
BAMTB3B1bHAtY2EwHhcNMTcwNTA5MTk1MjEyWhcNMjcwNTA3MTk1MjEyWjAPMQ0w
CwYDVQQDEwRjZXJ0MIICIjANBgkqhkiG9w0BAQEFAAOCAg8AMIICCgKCAgEApM35
zBRfHheqC/RacOkH5QWSJglIhEuPupTM2Yy/u6eKsggBiAeXohvxlS78nmZH+bEO
MdptSMshnJc60MGteL8qwIwHWwZEvwonExkyWT7e5KDo+undEtdUR5bsbzrRdXiM
wDrxqWW8pjaS2bTAjIx+AkghginTvn55iTD9uXB0WVnEoaiKO8plHijTdwkLqVhB
s4yIIYAMM3/Ej1ZTYDIJrmfkcwfvcZc5NUqg4b91y4mhaRp4T3QtzPpXPfTK2p0m
uu8d8e2Z6WAMXbo8/FlZQ4AbTRKpk2ENJ3xI27x1mR3xwilYedH5kElRfOwabmNA
oDqZG9AzLvxwZE9ct41S52F8v6Za/oOjG3z1tSAWQ4q4EW30UhqhMCKmrJauZC+D
maBQqM0rIHIlKR+njnJu6RUOXjPCysj84PpwNC/vdgHUF5e59SFUo3MFOVi16tTf
HLCo8CbCQ+xMMQLAQF1TKaqC9VQliUzGBjNYYkenQkk6v1pY2DnvXWs8b/by0zvA
xaihQ2Un/Tpd0Crpl9ulTa+8BhTTcBSC6ZVlzPkrZySx6sNK4VC2YC5ULlvxwkqF
JTm/zVzCstw5stduqstjLGUp/81bKPYTBnk2GAV1c4c/XVhKempXvYqWoqX2PiXy
H2+z/TTFmmG6GKW5Ax2XuzC23X0VCCwIxRw7sVECAwEAAaOBnTCBmjAfBgNVHREE
GDAWggNkZXaCD2Rldi5leGFtcGxlLmNvbTAJBgNVHRMEAjAAMCwGCWCGSAGG+EIB
DQQfFh1PcGVuU1NMIEdlbmVyYXRlZCBDZXJ0aWZpY2F0ZTAdBgNVHQ4EFgQUNUm8
MR9sInFSlrIW5xI4u6EGNpgwHwYDVR0jBBgwFoAUPDxX3wOjSdlN5OyvTrJkvyEY
MgIwDQYJKoZIhvcNAQEFBQADggIBAHLQ6DhKMSlsGb5A4eBbEMb2QZO9PoIKjbxt
kVfu23mXBGNSAWAYadRlb3fTHc25/sDl5B4UfHFCRdlt0g/7Z/V3z2LMf9f7yCTE
Xs3dU64tH31hOGg6dezFtT+Hm6JVjWpHlUF2wtzhfYF9Jd/eNaMi9OM+BlW89euS
//AzN9pbXyg21ZcI6puAdf03PQKnxkOTrNqTRMai+f+rlQzNES8svOlTVuxbh22A
GohQdVpKSCzujx62M7CT1f1IOR6GD+BBf6PwPqZR28mczwp0yO6Kmen2dJKsXszc
E4q136gZ4TUP82A/BDbuO1KMvqC4ShjYvhupWRwtVLKljyxa8erukaV6C5MmG2TZ
GeN8niiiD8y7t6LiuEWrgbe9xztPznOmlOvLWacHGxcwf4B0xj3bTmx/jcNfBtYW
R73gy0TMMUzfnJRtHYnlR4vf8yAAmCRl035p20tgRXSgfaoW6Zt4K94cBpZhAkmI
TDDnGYzNu9hFqoS5fQkvc3VdYbxAjdYFiz0P1JKduwWfqvdyvFbyP0rLnDIijDnC
gKcs2DMF58R9GvK+c7mxqINsjUVSVHR4vsl5w0eHiZaxSzLM4NPfLg0q/JM6PXOQ
Kh1yeCQ1iEgPHL3GX46mb0BLPsq1U+/EYrMZM+m9fIMnmFluU5GoIZ4OHdwrCxut
yeU2Ob2L
-----END CERTIFICATE-----
