Certificate:
    Data:
        Version: 3 (0x2)
        Serial Number:
            ef:21:7a:d2:ab:8f:39:46
    Signature Algorithm: sha256WithRSAEncryption
        Issuer: CN=pulp-ca
        Validity
            Not Before: Jan 25 17:35:38 2017 GMT
            Not After : Jan 23 17:35:38 2027 GMT
        Subject: CN=cert
        Subject Public Key Info:
            Public Key Algorithm: rsaEncryption
                Public-Key: (4096 bit)
                Modulus:
                    00:a5:7b:e8:b0:b8:93:fa:16:ae:de:0d:75:d8:d3:
                    65:d3:01:39:c3:76:31:80:cc:73:60:98:8c:96:0e:
                    d5:a3:c0:ac:68:88:eb:45:b4:9b:dd:d7:bd:27:52:
                    0b:80:3c:c0:2a:70:8b:e9:a9:48:bb:c2:c8:50:85:
                    8f:81:e6:1f:d6:cb:34:d4:8e:b3:5f:8e:b4:a7:ff:
                    ac:f3:f4:4d:e2:87:a3:f4:e9:03:1f:20:b6:ee:a4:
                    ef:38:21:5c:cb:3e:8e:89:78:11:9d:f5:4d:8a:47:
                    62:18:61:bd:79:8e:47:e5:37:4c:23:ba:e4:1e:ce:
                    ce:84:56:09:6c:95:7e:83:ef:0d:7d:75:0c:ec:30:
                    4e:19:43:7f:85:8f:c2:78:6f:1d:8c:0d:72:8d:94:
                    22:0e:36:9d:f6:39:d5:59:70:1d:bd:b5:6b:96:0e:
                    14:5a:e2:f2:f0:00:b1:f7:0d:6c:28:54:b3:ea:b3:
                    0c:ef:1d:6f:b3:82:5d:14:db:f9:50:55:b2:a8:31:
                    01:ed:14:b1:ed:7d:16:0d:a5:e5:78:0a:50:fa:86:
                    0b:16:b1:94:8d:eb:81:64:cd:cb:5c:d7:3d:02:da:
                    4a:0c:36:0d:52:6f:57:b9:3e:2d:df:a6:5e:16:53:
                    98:7f:9c:6a:08:16:7e:2f:f2:05:82:6b:b1:54:c6:
                    1b:6c:3a:15:30:88:4c:73:d7:72:f2:ab:86:79:7c:
                    18:33:2a:9f:6e:7d:3b:7f:a5:7b:72:2d:fa:3a:d6:
                    ac:16:89:17:0e:59:bc:5d:e1:78:93:26:5e:fb:6b:
                    38:a5:a7:fe:48:f4:88:6d:45:79:71:f8:33:ad:07:
                    71:3d:44:3f:76:30:d7:1d:d4:e0:87:46:e7:18:8d:
                    d8:be:36:14:11:04:ab:ad:66:73:77:94:a7:d7:2f:
                    1f:31:7e:5b:63:1b:11:2b:6f:db:00:b6:ae:6a:b1:
                    07:a0:27:59:73:4c:7a:2e:7a:7d:e3:91:ac:7e:1d:
                    ac:c7:64:a6:9c:86:0a:aa:88:a8:69:5a:8c:63:33:
                    46:3b:16:6b:e7:45:8b:10:fc:e2:36:87:8b:d6:d2:
                    88:3a:10:1c:b8:06:6d:ba:2d:81:30:93:90:3f:58:
                    9f:5e:fb:3e:91:3f:67:12:6b:a0:38:23:5b:c3:07:
                    ca:13:48:91:66:0b:ee:b3:cc:85:bd:02:e6:35:4b:
                    83:ed:15:b8:68:76:db:ea:50:25:10:fc:ac:2d:5b:
                    6b:d8:71:51:00:5e:86:22:11:ab:a3:36:ef:02:c8:
                    30:23:53:1c:e4:bc:d8:61:5a:ba:60:83:3d:4c:08:
                    85:99:ae:1e:11:ff:bf:93:e4:aa:9c:13:13:49:34:
                    27:b5:47
                Exponent: 65537 (0x10001)
        X509v3 extensions:
            X509v3 Subject Alternative Name: 
                DNS:dev, DNS:dev.example.com
            X509v3 Basic Constraints: 
                CA:FALSE
            Netscape Comment: 
                OpenSSL Generated Certificate
            X509v3 Subject Key Identifier: 
                5D:E3:C5:10:07:5A:C4:23:A8:04:2E:01:0B:3C:80:44:72:5C:A1:ED
            X509v3 Authority Key Identifier: 
                keyid:6D:39:7E:93:A7:3A:62:E7:6E:DA:0F:26:E6:BD:2C:44:DE:57:CD:39

    Signature Algorithm: sha256WithRSAEncryption
         9d:be:dc:ec:9e:65:2b:79:cd:ea:11:00:82:ce:6d:12:ff:4f:
         f1:36:3f:8b:a2:a8:2d:4d:f3:0e:f7:70:85:79:a7:0d:80:67:
         dd:bb:41:93:59:f1:c7:8e:d1:02:eb:97:99:1b:5c:f9:50:14:
         19:24:b0:06:6f:f1:28:10:4b:60:25:c4:0e:6e:c7:a4:44:a3:
         ad:84:64:20:5c:10:af:57:05:83:d6:1c:2d:ef:02:0c:f0:48:
         10:7d:fb:a7:07:f2:52:d5:a6:d9:24:c1:79:d4:59:03:80:dd:
         29:b7:17:6a:a5:76:e7:e9:17:e3:9f:c2:4d:c2:e3:22:dc:d7:
         20:89:b3:a7:83:0d:b8:5f:a1:33:1e:25:3d:59:80:1d:f4:2b:
         bc:ed:8c:30:b6:f5:41:ce:a9:29:fd:c4:26:a8:6e:d1:01:2e:
         e2:bf:db:bf:57:c5:72:1b:a8:23:16:d8:dc:55:38:2b:21:5e:
         06:49:59:e3:d4:3a:6b:0c:01:17:fd:55:b7:6d:cb:f3:62:f0:
         99:f2:ad:6e:df:8c:6a:04:39:0e:c8:54:08:d4:71:c6:17:fd:
         03:55:c8:cc:c8:d7:a4:7c:32:3c:d7:17:e4:02:a0:01:9a:de:
         2e:15:0b:9b:45:82:31:f5:1f:29:3c:be:59:72:21:77:e3:18:
         fd:e4:e7:44:4d:bf:85:71:d8:be:ba:c7:2f:32:60:6b:4d:82:
         15:44:71:a4:ea:2d:63:f9:63:66:84:af:f9:42:e4:45:99:2d:
         a1:d1:9f:9b:ac:e3:d2:de:0f:e6:e5:8d:97:b6:58:20:ec:9e:
         fb:13:10:14:ba:b4:07:03:ac:2c:ca:41:a1:a0:03:e4:32:52:
         ee:c8:53:3e:38:96:16:25:58:4a:52:44:4a:04:36:26:a9:94:
         ac:d5:df:f7:c5:ee:ab:92:e5:45:f9:ff:9e:a6:2d:a8:96:33:
         f2:9f:0d:66:3e:4b:91:a3:5f:7e:52:cc:97:bc:11:f3:d9:a2:
         b3:ab:de:5c:be:3d:2a:9d:ac:db:19:91:46:47:4d:b9:0d:3b:
         33:41:5c:b8:83:c3:57:fa:54:f5:f7:4e:25:99:40:52:3b:bd:
         5e:e5:47:d8:7a:01:ff:96:d7:cd:ce:91:c4:2f:29:36:e7:59:
         c0:84:be:b7:9e:82:12:52:93:02:2d:e6:27:e8:82:64:0b:64:
         dd:df:a0:ee:46:4f:d7:10:9f:0b:3a:dc:09:da:18:1e:fe:7a:
         9e:ea:dc:02:41:48:fa:64:9d:ce:ce:42:c7:ec:f9:70:11:d6:
         40:26:ab:0c:81:af:6e:86:ca:71:50:1d:d8:ac:07:71:08:4e:
         b0:f2:89:14:b6:25:76:fd
-----BEGIN CERTIFICATE-----
MIIFQjCCAyqgAwIBAgIJAO8hetKrjzlGMA0GCSqGSIb3DQEBCwUAMBIxEDAOBgNV
BAMMB3B1bHAtY2EwHhcNMTcwMTI1MTczNTM4WhcNMjcwMTIzMTczNTM4WjAPMQ0w
CwYDVQQDDARjZXJ0MIICIjANBgkqhkiG9w0BAQEFAAOCAg8AMIICCgKCAgEApXvo
sLiT+hau3g112NNl0wE5w3YxgMxzYJiMlg7Vo8CsaIjrRbSb3de9J1ILgDzAKnCL
6alIu8LIUIWPgeYf1ss01I6zX460p/+s8/RN4oej9OkDHyC27qTvOCFcyz6OiXgR
nfVNikdiGGG9eY5H5TdMI7rkHs7OhFYJbJV+g+8NfXUM7DBOGUN/hY/CeG8djA1y
jZQiDjad9jnVWXAdvbVrlg4UWuLy8ACx9w1sKFSz6rMM7x1vs4JdFNv5UFWyqDEB
7RSx7X0WDaXleApQ+oYLFrGUjeuBZM3LXNc9AtpKDDYNUm9XuT4t36ZeFlOYf5xq
CBZ+L/IFgmuxVMYbbDoVMIhMc9dy8quGeXwYMyqfbn07f6V7ci36OtasFokXDlm8
XeF4kyZe+2s4paf+SPSIbUV5cfgzrQdxPUQ/djDXHdTgh0bnGI3YvjYUEQSrrWZz
d5Sn1y8fMX5bYxsRK2/bALauarEHoCdZc0x6Lnp945Gsfh2sx2SmnIYKqoioaVqM
YzNGOxZr50WLEPziNoeL1tKIOhAcuAZtui2BMJOQP1ifXvs+kT9nEmugOCNbwwfK
E0iRZgvus8yFvQLmNUuD7RW4aHbb6lAlEPysLVtr2HFRAF6GIhGrozbvAsgwI1Mc
5LzYYVq6YIM9TAiFma4eEf+/k+SqnBMTSTQntUcCAwEAAaOBnTCBmjAfBgNVHREE
GDAWggNkZXaCD2Rldi5leGFtcGxlLmNvbTAJBgNVHRMEAjAAMCwGCWCGSAGG+EIB
DQQfFh1PcGVuU1NMIEdlbmVyYXRlZCBDZXJ0aWZpY2F0ZTAdBgNVHQ4EFgQUXePF
EAdaxCOoBC4BCzyARHJcoe0wHwYDVR0jBBgwFoAUbTl+k6c6Yudu2g8m5r0sRN5X
zTkwDQYJKoZIhvcNAQELBQADggIBAJ2+3OyeZSt5zeoRAILObRL/T/E2P4uiqC1N
8w73cIV5pw2AZ927QZNZ8ceO0QLrl5kbXPlQFBkksAZv8SgQS2AlxA5ux6REo62E
ZCBcEK9XBYPWHC3vAgzwSBB9+6cH8lLVptkkwXnUWQOA3Sm3F2qldufpF+Ofwk3C
4yLc1yCJs6eDDbhfoTMeJT1ZgB30K7ztjDC29UHOqSn9xCaobtEBLuK/279XxXIb
qCMW2NxVOCshXgZJWePUOmsMARf9Vbdty/Ni8JnyrW7fjGoEOQ7IVAjUccYX/QNV
yMzI16R8MjzXF+QCoAGa3i4VC5tFgjH1Hyk8vllyIXfjGP3k50RNv4Vx2L66xy8y
YGtNghVEcaTqLWP5Y2aEr/lC5EWZLaHRn5us49LeD+bljZe2WCDsnvsTEBS6tAcD
rCzKQaGgA+QyUu7IUz44lhYlWEpSREoENiaplKzV3/fF7quS5UX5/56mLaiWM/Kf
DWY+S5GjX35SzJe8EfPZorOr3ly+PSqdrNsZkUZHTbkNOzNBXLiDw1f6VPX3TiWZ
QFI7vV7lR9h6Af+W183OkcQvKTbnWcCEvreeghJSkwIt5ifogmQLZN3foO5GT9cQ
nws63AnaGB7+ep7q3AJBSPpknc7OQsfs+XAR1kAmqwyBr26GynFQHdisB3EITrDy
iRS2JXb9
-----END CERTIFICATE-----
