Certificate:
    Data:
        Version: 3 (0x2)
        Serial Number:
            d7:a4:b7:95:b3:b2:8a:17
    Signature Algorithm: sha256WithRSAEncryption
        Issuer: CN = pulp-ca
        Validity
            Not Before: Jan 25 20:38:08 2018 GMT
            Not After : Jan 23 20:38:08 2028 GMT
        Subject: CN = cert
        Subject Public Key Info:
            Public Key Algorithm: rsaEncryption
                Public-Key: (4096 bit)
                Modulus:
                    00:bc:41:0e:b0:a8:c3:cb:63:a0:bf:d5:93:da:d4:
                    8a:97:68:4e:18:07:dc:6a:31:3b:33:13:a6:d1:6e:
                    03:82:4f:d3:c0:72:51:60:81:fb:ba:42:cd:b8:15:
                    fd:f8:fa:96:51:04:c3:b1:59:01:7a:eb:a1:17:7e:
                    69:ad:ec:38:d1:48:16:92:7f:8c:07:d6:c0:3b:ce:
                    2e:90:45:a1:98:81:14:5e:69:49:c8:ef:8a:3e:56:
                    de:08:2c:26:6c:c6:90:4b:16:e0:cb:df:89:50:e2:
                    20:41:a7:ea:55:93:ff:96:bc:2b:ba:ae:bb:ee:bf:
                    fd:f6:aa:f9:9c:14:f6:1f:b1:69:5e:de:c7:d1:d9:
                    32:e9:7c:93:24:5f:ef:56:6d:ca:7a:ca:3d:4e:b8:
                    d6:03:44:88:5f:9a:54:98:54:52:72:6d:75:17:58:
                    c1:9d:16:d4:3f:9a:f1:72:8e:64:4e:f7:bd:26:1e:
                    d7:95:87:e3:31:6d:90:d3:ea:04:ca:dd:29:a9:4c:
                    43:54:8b:b0:52:5a:8c:0e:b1:1f:9b:c2:8b:5a:c7:
                    3c:61:dd:f1:d3:c6:2c:41:b0:ac:5c:25:78:cc:5f:
                    2e:58:b4:73:ed:9f:00:36:64:1f:ce:2f:dd:f7:54:
                    3e:5c:20:26:d0:c4:57:9e:cb:89:75:73:f7:8d:e7:
                    e0:d0:52:d8:63:5d:dd:2c:fa:0e:09:20:b4:8e:a5:
                    cb:1b:c2:07:03:fe:04:39:85:12:de:c5:3d:1b:30:
                    ec:ed:c5:5c:da:5f:ab:1b:79:c5:ee:35:46:e0:68:
                    10:87:3e:21:a4:64:f1:c5:a8:ec:85:2f:9c:c0:82:
                    8f:d1:47:93:01:e4:04:37:29:d0:4f:3e:74:18:4f:
                    21:4c:d5:19:15:b8:59:28:fd:28:03:a3:92:53:c5:
                    92:d7:00:4d:ab:36:e8:4c:56:7c:ef:b6:87:8b:ce:
                    9c:b1:68:99:bf:8e:e4:3d:7f:cb:e4:b6:c0:14:57:
                    a1:5f:e0:38:2f:7d:4e:e9:72:52:14:fb:8a:fb:d5:
                    41:64:ee:81:f5:5d:c2:52:05:ed:23:0b:b1:eb:f7:
                    76:9a:5f:55:27:86:9d:34:61:6d:15:39:36:e1:39:
                    27:87:48:1a:00:53:2b:e8:33:b8:4a:f7:f7:ae:9c:
                    58:42:87:21:05:c6:11:b4:2b:63:11:9c:d6:08:a8:
                    66:88:fe:b1:5d:12:bf:71:e1:66:55:b2:c1:4d:1e:
                    a8:d2:17:67:25:ff:85:6f:fe:23:0c:35:96:4d:51:
                    dc:c9:52:d8:d7:9d:fa:b7:ad:db:a5:b0:ac:3b:e8:
                    bf:87:95:6e:8f:0f:ce:37:4e:03:00:1e:20:c3:79:
                    46:39:3f
                Exponent: 65537 (0x10001)
        X509v3 extensions:
            X509v3 Subject Alternative Name: 
                DNS:dev, DNS:dev.example.com
            X509v3 Basic Constraints: 
                CA:FALSE
            Netscape Comment: 
                OpenSSL Generated Certificate
            X509v3 Subject Key Identifier: 
                75:01:A9:C1:4B:CD:CF:07:2D:49:66:37:0B:04:DD:2E:78:5C:63:B0
            X509v3 Authority Key Identifier: 
                keyid:CC:BE:D4:DD:A8:5C:F2:17:AC:ED:24:F8:95:D3:08:07:93:5C:4A:82

    Signature Algorithm: sha256WithRSAEncryption
         1b:4d:ce:73:1f:d0:4a:8f:85:2d:8c:51:9a:93:9f:51:36:82:
         39:0b:f2:b6:37:97:15:9f:c3:cd:01:00:43:b9:1d:0b:0b:87:
         8a:97:2c:08:4c:44:a3:37:2b:ee:cd:84:04:81:b6:3f:22:72:
         bc:23:68:43:aa:ea:14:69:25:67:59:b6:24:de:57:64:99:0f:
         49:95:c5:4d:ce:82:bb:45:31:bb:f9:13:38:9f:8e:52:80:67:
         02:77:e3:5d:08:30:3d:06:53:9c:08:1e:e2:b6:36:84:8f:f8:
         45:d0:91:c8:f4:94:3f:58:26:ab:a4:05:0c:ef:5c:12:1d:b8:
         d8:e5:4e:57:df:dd:dd:e9:85:03:b5:40:7b:26:24:ef:12:99:
         14:21:43:42:e9:b3:81:7f:8e:49:ab:81:36:67:d9:b4:86:9c:
         24:8b:2e:e7:39:a0:fb:87:c0:03:57:51:d3:87:31:8d:4f:68:
         e1:9e:33:fe:36:72:a7:ec:18:b3:2b:20:70:16:7b:bb:1d:b0:
         2e:e6:b5:22:c5:f7:28:0b:da:41:e9:77:9c:1f:80:97:e0:71:
         90:77:b6:65:54:09:68:56:9b:1b:20:82:7a:32:fe:df:91:bd:
         38:49:ca:3a:45:28:ab:a6:c4:e0:14:f0:d1:a8:0f:fa:19:48:
         d9:46:4d:54:02:09:a1:39:e2:1e:dc:60:79:61:f7:c1:6f:ae:
         aa:15:15:01:e1:67:5e:42:32:3f:63:d2:9a:ae:47:9d:b1:c7:
         13:63:c8:1e:a9:20:6a:3c:28:a5:f7:f3:3c:98:3c:8b:5a:41:
         12:ad:53:ec:42:f6:71:e3:00:1b:ea:15:1d:88:38:ed:9b:2e:
         5f:67:61:55:53:b4:72:09:16:91:38:1d:b4:c2:89:9b:90:a4:
         06:2f:38:92:6e:20:7a:45:7c:bb:18:42:76:22:6f:8d:e7:2e:
         7c:06:ea:b2:8a:70:f4:8a:01:56:5b:2a:59:ea:bb:1f:92:da:
         b4:26:96:0d:47:50:e3:20:7e:a2:a0:5f:95:3c:f3:66:d4:f9:
         51:5f:57:67:65:db:c2:e1:1a:25:6b:90:63:9e:c1:29:29:6b:
         f5:5d:db:3d:b2:50:31:99:cf:83:55:b8:e8:64:21:e7:83:81:
         37:55:af:c9:5c:83:a1:96:99:ce:c5:a8:35:cd:f8:c9:5b:a0:
         39:41:3f:55:1c:26:4c:04:99:2f:8d:a9:a1:f5:d3:9b:7a:db:
         41:2c:47:d1:23:6f:38:39:0e:57:c0:7b:06:e6:9b:5a:e3:fa:
         99:df:72:6a:c8:23:36:a1:c8:34:20:3e:ef:64:dd:61:0e:57:
         98:47:8b:96:8f:57:4f:1e
-----BEGIN CERTIFICATE-----
MIIFQjCCAyqgAwIBAgIJANekt5WzsooXMA0GCSqGSIb3DQEBCwUAMBIxEDAOBgNV
BAMMB3B1bHAtY2EwHhcNMTgwMTI1MjAzODA4WhcNMjgwMTIzMjAzODA4WjAPMQ0w
CwYDVQQDDARjZXJ0MIICIjANBgkqhkiG9w0BAQEFAAOCAg8AMIICCgKCAgEAvEEO
sKjDy2Ogv9WT2tSKl2hOGAfcajE7MxOm0W4Dgk/TwHJRYIH7ukLNuBX9+PqWUQTD
sVkBeuuhF35prew40UgWkn+MB9bAO84ukEWhmIEUXmlJyO+KPlbeCCwmbMaQSxbg
y9+JUOIgQafqVZP/lrwruq677r/99qr5nBT2H7FpXt7H0dky6XyTJF/vVm3Keso9
TrjWA0SIX5pUmFRScm11F1jBnRbUP5rxco5kTve9Jh7XlYfjMW2Q0+oEyt0pqUxD
VIuwUlqMDrEfm8KLWsc8Yd3x08YsQbCsXCV4zF8uWLRz7Z8ANmQfzi/d91Q+XCAm
0MRXnsuJdXP3jefg0FLYY13dLPoOCSC0jqXLG8IHA/4EOYUS3sU9GzDs7cVc2l+r
G3nF7jVG4GgQhz4hpGTxxajshS+cwIKP0UeTAeQENynQTz50GE8hTNUZFbhZKP0o
A6OSU8WS1wBNqzboTFZ877aHi86csWiZv47kPX/L5LbAFFehX+A4L31O6XJSFPuK
+9VBZO6B9V3CUgXtIwux6/d2ml9VJ4adNGFtFTk24Tknh0gaAFMr6DO4Svf3rpxY
QochBcYRtCtjEZzWCKhmiP6xXRK/ceFmVbLBTR6o0hdnJf+Fb/4jDDWWTVHcyVLY
1536t63bpbCsO+i/h5Vujw/ON04DAB4gw3lGOT8CAwEAAaOBnTCBmjAfBgNVHREE
GDAWggNkZXaCD2Rldi5leGFtcGxlLmNvbTAJBgNVHRMEAjAAMCwGCWCGSAGG+EIB
DQQfFh1PcGVuU1NMIEdlbmVyYXRlZCBDZXJ0aWZpY2F0ZTAdBgNVHQ4EFgQUdQGp
wUvNzwctSWY3CwTdLnhcY7AwHwYDVR0jBBgwFoAUzL7U3ahc8hes7ST4ldMIB5Nc
SoIwDQYJKoZIhvcNAQELBQADggIBABtNznMf0EqPhS2MUZqTn1E2gjkL8rY3lxWf
w80BAEO5HQsLh4qXLAhMRKM3K+7NhASBtj8icrwjaEOq6hRpJWdZtiTeV2SZD0mV
xU3OgrtFMbv5EzifjlKAZwJ3410IMD0GU5wIHuK2NoSP+EXQkcj0lD9YJqukBQzv
XBIduNjlTlff3d3phQO1QHsmJO8SmRQhQ0Lps4F/jkmrgTZn2bSGnCSLLuc5oPuH
wANXUdOHMY1PaOGeM/42cqfsGLMrIHAWe7sdsC7mtSLF9ygL2kHpd5wfgJfgcZB3
tmVUCWhWmxsggnoy/t+RvThJyjpFKKumxOAU8NGoD/oZSNlGTVQCCaE54h7cYHlh
98FvrqoVFQHhZ15CMj9j0pquR52xxxNjyB6pIGo8KKX38zyYPItaQRKtU+xC9nHj
ABvqFR2IOO2bLl9nYVVTtHIJFpE4HbTCiZuQpAYvOJJuIHpFfLsYQnYib43nLnwG
6rKKcPSKAVZbKlnqux+S2rQmlg1HUOMgfqKgX5U882bU+VFfV2dl28LhGiVrkGOe
wSkpa/Vd2z2yUDGZz4NVuOhkIeeDgTdVr8lcg6GWmc7FqDXN+MlboDlBP1UcJkwE
mS+NqaH105t620EsR9Ejbzg5DlfAewbmm1rj+pnfcmrIIzahyDQgPu9k3WEOV5hH
i5aPV08e
-----END CERTIFICATE-----
